

Microchip MPLAB XC8 Assembler V2.45 build 20230818022343 
                                                                                               Tue Nov 21 09:18:27 2023

Microchip MPLAB XC8 C Compiler v2.45 (Free license) build 20230818022343 Og1 
     1                           	processor	16F877A
     2                           	pagewidth 120
     3                           	opt	flic
     4                           	psect	idataBANK0,global,class=CODE,delta=2,noexec
     5                           	psect	idataBANK1,global,class=CODE,delta=2,noexec
     6                           	psect	strings,global,class=STRING,delta=2,noexec
     7                           	psect	stringtext,global,reloc=256,class=STRCODE,delta=2,noexec
     8                           	psect	cinit,global,class=CODE,merge=1,delta=2
     9                           	psect	bssCOMMON,global,class=COMMON,space=1,delta=1,noexec
    10                           	psect	bssBANK0,global,class=BANK0,space=1,delta=1,noexec
    11                           	psect	dataBANK0,global,class=BANK0,space=1,delta=1,noexec
    12                           	psect	bssBANK1,global,class=BANK1,space=1,delta=1,noexec
    13                           	psect	dataBANK1,global,class=BANK1,space=1,delta=1,noexec
    14                           	psect	inittext,global,class=CODE,delta=2
    15                           	psect	clrtext,global,class=CODE,delta=2
    16                           	psect	cstackCOMMON,global,class=COMMON,space=1,delta=1,noexec
    17                           	psect	cstackBANK0,global,class=BANK0,space=1,delta=1,noexec
    18                           	psect	maintext,global,class=CODE,split=1,delta=2
    19                           	psect	text1,local,class=CODE,merge=1,delta=2
    20                           	psect	text2,local,class=CODE,merge=1,delta=2,group=2
    21                           	psect	text3,local,class=CODE,merge=1,delta=2
    22                           	psect	text4,local,class=CODE,merge=1,delta=2,group=1
    23                           	psect	text5,local,class=CODE,merge=1,delta=2
    24                           	psect	text6,local,class=CODE,merge=1,delta=2
    25                           	psect	text7,local,class=CODE,merge=1,delta=2
    26                           	psect	text8,local,class=CODE,merge=1,delta=2
    27                           	psect	text9,local,class=CODE,merge=1,delta=2
    28                           	psect	text10,local,class=CODE,merge=1,delta=2
    29                           	psect	text11,local,class=CODE,merge=1,delta=2
    30                           	psect	text12,local,class=CODE,merge=1,delta=2
    31                           	psect	text13,local,class=CODE,merge=1,delta=2
    32                           	psect	text14,local,class=CODE,merge=1,delta=2
    33                           	psect	text15,local,class=CODE,merge=1,delta=2
    34                           	psect	text16,local,class=CODE,merge=1,delta=2
    35                           	psect	text17,local,class=CODE,merge=1,delta=2,group=1
    36                           	psect	text18,local,class=CODE,merge=1,delta=2
    37                           	psect	text19,local,class=CODE,merge=1,delta=2
    38                           	psect	text20,local,class=CODE,merge=1,delta=2
    39                           	psect	text21,local,class=CODE,merge=1,delta=2
    40                           	psect	text22,local,class=CODE,merge=1,delta=2
    41                           	psect	text23,local,class=CODE,merge=1,delta=2
    42                           	psect	text24,local,class=CODE,merge=1,delta=2
    43                           	psect	text25,local,class=CODE,merge=1,delta=2
    44                           	psect	text26,local,class=CODE,merge=1,delta=2
    45                           	psect	text27,local,class=CODE,merge=1,delta=2
    46                           	psect	text28,local,class=CODE,merge=1,delta=2
    47                           	psect	text29,local,class=CODE,merge=1,delta=2,group=1
    48                           	psect	text30,local,class=CODE,merge=1,delta=2
    49                           	psect	text31,local,class=CODE,merge=1,delta=2
    50                           	psect	text32,local,class=CODE,merge=1,delta=2
    51                           	psect	text33,local,class=CODE,merge=1,delta=2
    52                           	psect	text34,local,class=CODE,merge=1,delta=2
    53                           	psect	text35,local,class=CODE,merge=1,delta=2
    54                           	psect	text36,local,class=CODE,merge=1,delta=2,group=1
    55                           	psect	text37,local,class=CODE,merge=1,delta=2,group=1
    56                           	psect	text38,local,class=CODE,merge=1,delta=2
    57                           	psect	text39,local,class=CODE,merge=1,delta=2
    58                           	psect	text40,local,class=CODE,merge=1,delta=2,group=2
    59                           	psect	text41,local,class=CODE,merge=1,delta=2
    60                           	psect	text42,local,class=CODE,merge=1,delta=2
    61                           	psect	text43,local,class=CODE,merge=1,delta=2
    62                           	psect	text44,local,class=CODE,merge=1,delta=2
    63                           	psect	text45,local,class=CODE,merge=1,delta=2
    64                           	psect	text46,local,class=CODE,merge=1,delta=2
    65                           	psect	text47,local,class=CODE,merge=1,delta=2
    66                           	psect	text48,local,class=CODE,merge=1,delta=2
    67                           	psect	text49,local,class=CODE,merge=1,delta=2
    68                           	psect	text50,local,class=CODE,merge=1,delta=2
    69                           	psect	text51,local,class=CODE,merge=1,delta=2
    70                           	psect	text52,local,class=CODE,merge=1,delta=2,group=1
    71                           	psect	text53,local,class=CODE,merge=1,delta=2
    72                           	psect	intentry,global,class=CODE,delta=2
    73                           	psect	idloc,global,abs,ovrld,class=IDLOC,space=5,delta=2,noexec
    74                           	psect	config,global,abs,ovrld,class=CONFIG,space=4,delta=2,noexec
    75                           	dabs	1,0x7E,2
    76     0000                     
    77                           ; Generated 12/10/2023 GMT
    78                           ; 
    79                           ; Copyright © 2023, Microchip Technology Inc. and its subsidiaries ("Microchip")
    80                           ; All rights reserved.
    81                           ; 
    82                           ; This software is developed by Microchip Technology Inc. and its subsidiaries ("Microch
      +                          ip").
    83                           ; 
    84                           ; Redistribution and use in source and binary forms, with or without modification, are
    85                           ; permitted provided that the following conditions are met:
    86                           ; 
    87                           ;     1. Redistributions of source code must retain the above copyright notice, this lis
      +                          t of
    88                           ;        conditions and the following disclaimer.
    89                           ; 
    90                           ;     2. Redistributions in binary form must reproduce the above copyright notice, this 
      +                          list
    91                           ;        of conditions and the following disclaimer in the documentation and/or other
    92                           ;        materials provided with the distribution. Publication is not required when
    93                           ;        this file is used in an embedded application.
    94                           ; 
    95                           ;     3. Microchip's name may not be used to endorse or promote products derived from th
      +                          is
    96                           ;        software without specific prior written permission.
    97                           ; 
    98                           ; THIS SOFTWARE IS PROVIDED BY MICROCHIP "AS IS" AND ANY EXPRESS OR IMPLIED WARRANTIES,
    99                           ; INCLUDING, BUT NOT LIMITED TO, THE IMPLIED WARRANTIES OF MERCHANTABILITY AND FITNESS F
      +                          OR
   100                           ; PURPOSE ARE DISCLAIMED.  IN NO EVENT SHALL MICROCHIP BE LIABLE FOR ANY DIRECT, INDIREC
      +                          T,
   101                           ; INCIDENTAL, SPECIAL, EXEMPLARY, OR CONSEQUENTIAL DAMAGES (INCLUDING BUT NOT LIMITED TO
   102                           ; PROCUREMENT OF SUBSTITUTE GOODS OR SERVICES; LOSS OF USE, DATA OR PROFITS; OR BUSINESS
   103                           ; INTERRUPTION) HOWSOEVER CAUSED AND ON ANY THEORY OF LIABILITY, WHETHER IN CONTRACT, ST
      +                          RICT
   104                           ; LIABILITY, OR TORT (INCLUDING NEGLIGENCE OR OTHERWISE) ARISING IN ANY WAY OUT OF THE U
      +                          SE OF
   105                           ; THIS SOFTWARE, EVEN IF ADVISED OF THE POSSIBILITY OF SUCH DAMAGE.
   106                           ; 
   107                           ; 
   108                           ; Code-generator required, PIC16F877A Definitions
   109                           ; 
   110                           ; SFR Addresses
   111     0000                     	;# 
   112     0001                     	;# 
   113     0002                     	;# 
   114     0003                     	;# 
   115     0004                     	;# 
   116     0005                     	;# 
   117     0006                     	;# 
   118     0007                     	;# 
   119     0008                     	;# 
   120     0009                     	;# 
   121     000A                     	;# 
   122     000B                     	;# 
   123     000C                     	;# 
   124     000D                     	;# 
   125     000E                     	;# 
   126     000E                     	;# 
   127     000F                     	;# 
   128     0010                     	;# 
   129     0011                     	;# 
   130     0012                     	;# 
   131     0013                     	;# 
   132     0014                     	;# 
   133     0015                     	;# 
   134     0015                     	;# 
   135     0016                     	;# 
   136     0017                     	;# 
   137     0018                     	;# 
   138     0019                     	;# 
   139     001A                     	;# 
   140     001B                     	;# 
   141     001B                     	;# 
   142     001C                     	;# 
   143     001D                     	;# 
   144     001E                     	;# 
   145     001F                     	;# 
   146     0081                     	;# 
   147     0085                     	;# 
   148     0086                     	;# 
   149     0087                     	;# 
   150     0088                     	;# 
   151     0089                     	;# 
   152     008C                     	;# 
   153     008D                     	;# 
   154     008E                     	;# 
   155     0091                     	;# 
   156     0092                     	;# 
   157     0093                     	;# 
   158     0094                     	;# 
   159     0098                     	;# 
   160     0099                     	;# 
   161     009C                     	;# 
   162     009D                     	;# 
   163     009E                     	;# 
   164     009F                     	;# 
   165     010C                     	;# 
   166     010D                     	;# 
   167     010E                     	;# 
   168     010F                     	;# 
   169     018C                     	;# 
   170     018D                     	;# 
   171     0000                     	;# 
   172     0001                     	;# 
   173     0002                     	;# 
   174     0003                     	;# 
   175     0004                     	;# 
   176     0005                     	;# 
   177     0006                     	;# 
   178     0007                     	;# 
   179     0008                     	;# 
   180     0009                     	;# 
   181     000A                     	;# 
   182     000B                     	;# 
   183     000C                     	;# 
   184     000D                     	;# 
   185     000E                     	;# 
   186     000E                     	;# 
   187     000F                     	;# 
   188     0010                     	;# 
   189     0011                     	;# 
   190     0012                     	;# 
   191     0013                     	;# 
   192     0014                     	;# 
   193     0015                     	;# 
   194     0015                     	;# 
   195     0016                     	;# 
   196     0017                     	;# 
   197     0018                     	;# 
   198     0019                     	;# 
   199     001A                     	;# 
   200     001B                     	;# 
   201     001B                     	;# 
   202     001C                     	;# 
   203     001D                     	;# 
   204     001E                     	;# 
   205     001F                     	;# 
   206     0081                     	;# 
   207     0085                     	;# 
   208     0086                     	;# 
   209     0087                     	;# 
   210     0088                     	;# 
   211     0089                     	;# 
   212     008C                     	;# 
   213     008D                     	;# 
   214     008E                     	;# 
   215     0091                     	;# 
   216     0092                     	;# 
   217     0093                     	;# 
   218     0094                     	;# 
   219     0098                     	;# 
   220     0099                     	;# 
   221     009C                     	;# 
   222     009D                     	;# 
   223     009E                     	;# 
   224     009F                     	;# 
   225     010C                     	;# 
   226     010D                     	;# 
   227     010E                     	;# 
   228     010F                     	;# 
   229     018C                     	;# 
   230     018D                     	;# 
   231     0000                     	;# 
   232     0001                     	;# 
   233     0002                     	;# 
   234     0003                     	;# 
   235     0004                     	;# 
   236     0005                     	;# 
   237     0006                     	;# 
   238     0007                     	;# 
   239     0008                     	;# 
   240     0009                     	;# 
   241     000A                     	;# 
   242     000B                     	;# 
   243     000C                     	;# 
   244     000D                     	;# 
   245     000E                     	;# 
   246     000E                     	;# 
   247     000F                     	;# 
   248     0010                     	;# 
   249     0011                     	;# 
   250     0012                     	;# 
   251     0013                     	;# 
   252     0014                     	;# 
   253     0015                     	;# 
   254     0015                     	;# 
   255     0016                     	;# 
   256     0017                     	;# 
   257     0018                     	;# 
   258     0019                     	;# 
   259     001A                     	;# 
   260     001B                     	;# 
   261     001B                     	;# 
   262     001C                     	;# 
   263     001D                     	;# 
   264     001E                     	;# 
   265     001F                     	;# 
   266     0081                     	;# 
   267     0085                     	;# 
   268     0086                     	;# 
   269     0087                     	;# 
   270     0088                     	;# 
   271     0089                     	;# 
   272     008C                     	;# 
   273     008D                     	;# 
   274     008E                     	;# 
   275     0091                     	;# 
   276     0092                     	;# 
   277     0093                     	;# 
   278     0094                     	;# 
   279     0098                     	;# 
   280     0099                     	;# 
   281     009C                     	;# 
   282     009D                     	;# 
   283     009E                     	;# 
   284     009F                     	;# 
   285     010C                     	;# 
   286     010D                     	;# 
   287     010E                     	;# 
   288     010F                     	;# 
   289     018C                     	;# 
   290     018D                     	;# 
   291     0000                     	;# 
   292     0001                     	;# 
   293     0002                     	;# 
   294     0003                     	;# 
   295     0004                     	;# 
   296     0005                     	;# 
   297     0006                     	;# 
   298     0007                     	;# 
   299     0008                     	;# 
   300     0009                     	;# 
   301     000A                     	;# 
   302     000B                     	;# 
   303     000C                     	;# 
   304     000D                     	;# 
   305     000E                     	;# 
   306     000E                     	;# 
   307     000F                     	;# 
   308     0010                     	;# 
   309     0011                     	;# 
   310     0012                     	;# 
   311     0013                     	;# 
   312     0014                     	;# 
   313     0015                     	;# 
   314     0015                     	;# 
   315     0016                     	;# 
   316     0017                     	;# 
   317     0018                     	;# 
   318     0019                     	;# 
   319     001A                     	;# 
   320     001B                     	;# 
   321     001B                     	;# 
   322     001C                     	;# 
   323     001D                     	;# 
   324     001E                     	;# 
   325     001F                     	;# 
   326     0081                     	;# 
   327     0085                     	;# 
   328     0086                     	;# 
   329     0087                     	;# 
   330     0088                     	;# 
   331     0089                     	;# 
   332     008C                     	;# 
   333     008D                     	;# 
   334     008E                     	;# 
   335     0091                     	;# 
   336     0092                     	;# 
   337     0093                     	;# 
   338     0094                     	;# 
   339     0098                     	;# 
   340     0099                     	;# 
   341     009C                     	;# 
   342     009D                     	;# 
   343     009E                     	;# 
   344     009F                     	;# 
   345     010C                     	;# 
   346     010D                     	;# 
   347     010E                     	;# 
   348     010F                     	;# 
   349     018C                     	;# 
   350     018D                     	;# 
   351     0000                     	;# 
   352     0001                     	;# 
   353     0002                     	;# 
   354     0003                     	;# 
   355     0004                     	;# 
   356     0005                     	;# 
   357     0006                     	;# 
   358     0007                     	;# 
   359     0008                     	;# 
   360     0009                     	;# 
   361     000A                     	;# 
   362     000B                     	;# 
   363     000C                     	;# 
   364     000D                     	;# 
   365     000E                     	;# 
   366     000E                     	;# 
   367     000F                     	;# 
   368     0010                     	;# 
   369     0011                     	;# 
   370     0012                     	;# 
   371     0013                     	;# 
   372     0014                     	;# 
   373     0015                     	;# 
   374     0015                     	;# 
   375     0016                     	;# 
   376     0017                     	;# 
   377     0018                     	;# 
   378     0019                     	;# 
   379     001A                     	;# 
   380     001B                     	;# 
   381     001B                     	;# 
   382     001C                     	;# 
   383     001D                     	;# 
   384     001E                     	;# 
   385     001F                     	;# 
   386     0081                     	;# 
   387     0085                     	;# 
   388     0086                     	;# 
   389     0087                     	;# 
   390     0088                     	;# 
   391     0089                     	;# 
   392     008C                     	;# 
   393     008D                     	;# 
   394     008E                     	;# 
   395     0091                     	;# 
   396     0092                     	;# 
   397     0093                     	;# 
   398     0094                     	;# 
   399     0098                     	;# 
   400     0099                     	;# 
   401     009C                     	;# 
   402     009D                     	;# 
   403     009E                     	;# 
   404     009F                     	;# 
   405     010C                     	;# 
   406     010D                     	;# 
   407     010E                     	;# 
   408     010F                     	;# 
   409     018C                     	;# 
   410     018D                     	;# 
   411     0000                     	;# 
   412     0001                     	;# 
   413     0002                     	;# 
   414     0003                     	;# 
   415     0004                     	;# 
   416     0005                     	;# 
   417     0006                     	;# 
   418     0007                     	;# 
   419     0008                     	;# 
   420     0009                     	;# 
   421     000A                     	;# 
   422     000B                     	;# 
   423     000C                     	;# 
   424     000D                     	;# 
   425     000E                     	;# 
   426     000E                     	;# 
   427     000F                     	;# 
   428     0010                     	;# 
   429     0011                     	;# 
   430     0012                     	;# 
   431     0013                     	;# 
   432     0014                     	;# 
   433     0015                     	;# 
   434     0015                     	;# 
   435     0016                     	;# 
   436     0017                     	;# 
   437     0018                     	;# 
   438     0019                     	;# 
   439     001A                     	;# 
   440     001B                     	;# 
   441     001B                     	;# 
   442     001C                     	;# 
   443     001D                     	;# 
   444     001E                     	;# 
   445     001F                     	;# 
   446     0081                     	;# 
   447     0085                     	;# 
   448     0086                     	;# 
   449     0087                     	;# 
   450     0088                     	;# 
   451     0089                     	;# 
   452     008C                     	;# 
   453     008D                     	;# 
   454     008E                     	;# 
   455     0091                     	;# 
   456     0092                     	;# 
   457     0093                     	;# 
   458     0094                     	;# 
   459     0098                     	;# 
   460     0099                     	;# 
   461     009C                     	;# 
   462     009D                     	;# 
   463     009E                     	;# 
   464     009F                     	;# 
   465     010C                     	;# 
   466     010D                     	;# 
   467     010E                     	;# 
   468     010F                     	;# 
   469     018C                     	;# 
   470     018D                     	;# 
   471     0000                     	;# 
   472     0001                     	;# 
   473     0002                     	;# 
   474     0003                     	;# 
   475     0004                     	;# 
   476     0005                     	;# 
   477     0006                     	;# 
   478     0007                     	;# 
   479     0008                     	;# 
   480     0009                     	;# 
   481     000A                     	;# 
   482     000B                     	;# 
   483     000C                     	;# 
   484     000D                     	;# 
   485     000E                     	;# 
   486     000E                     	;# 
   487     000F                     	;# 
   488     0010                     	;# 
   489     0011                     	;# 
   490     0012                     	;# 
   491     0013                     	;# 
   492     0014                     	;# 
   493     0015                     	;# 
   494     0015                     	;# 
   495     0016                     	;# 
   496     0017                     	;# 
   497     0018                     	;# 
   498     0019                     	;# 
   499     001A                     	;# 
   500     001B                     	;# 
   501     001B                     	;# 
   502     001C                     	;# 
   503     001D                     	;# 
   504     001E                     	;# 
   505     001F                     	;# 
   506     0081                     	;# 
   507     0085                     	;# 
   508     0086                     	;# 
   509     0087                     	;# 
   510     0088                     	;# 
   511     0089                     	;# 
   512     008C                     	;# 
   513     008D                     	;# 
   514     008E                     	;# 
   515     0091                     	;# 
   516     0092                     	;# 
   517     0093                     	;# 
   518     0094                     	;# 
   519     0098                     	;# 
   520     0099                     	;# 
   521     009C                     	;# 
   522     009D                     	;# 
   523     009E                     	;# 
   524     009F                     	;# 
   525     010C                     	;# 
   526     010D                     	;# 
   527     010E                     	;# 
   528     010F                     	;# 
   529     018C                     	;# 
   530     018D                     	;# 
   531     0000                     	;# 
   532     0001                     	;# 
   533     0002                     	;# 
   534     0003                     	;# 
   535     0004                     	;# 
   536     0005                     	;# 
   537     0006                     	;# 
   538     0007                     	;# 
   539     0008                     	;# 
   540     0009                     	;# 
   541     000A                     	;# 
   542     000B                     	;# 
   543     000C                     	;# 
   544     000D                     	;# 
   545     000E                     	;# 
   546     000E                     	;# 
   547     000F                     	;# 
   548     0010                     	;# 
   549     0011                     	;# 
   550     0012                     	;# 
   551     0013                     	;# 
   552     0014                     	;# 
   553     0015                     	;# 
   554     0015                     	;# 
   555     0016                     	;# 
   556     0017                     	;# 
   557     0018                     	;# 
   558     0019                     	;# 
   559     001A                     	;# 
   560     001B                     	;# 
   561     001B                     	;# 
   562     001C                     	;# 
   563     001D                     	;# 
   564     001E                     	;# 
   565     001F                     	;# 
   566     0081                     	;# 
   567     0085                     	;# 
   568     0086                     	;# 
   569     0087                     	;# 
   570     0088                     	;# 
   571     0089                     	;# 
   572     008C                     	;# 
   573     008D                     	;# 
   574     008E                     	;# 
   575     0091                     	;# 
   576     0092                     	;# 
   577     0093                     	;# 
   578     0094                     	;# 
   579     0098                     	;# 
   580     0099                     	;# 
   581     009C                     	;# 
   582     009D                     	;# 
   583     009E                     	;# 
   584     009F                     	;# 
   585     010C                     	;# 
   586     010D                     	;# 
   587     010E                     	;# 
   588     010F                     	;# 
   589     018C                     	;# 
   590     018D                     	;# 
   591     0000                     	;# 
   592     0001                     	;# 
   593     0002                     	;# 
   594     0003                     	;# 
   595     0004                     	;# 
   596     0005                     	;# 
   597     0006                     	;# 
   598     0007                     	;# 
   599     0008                     	;# 
   600     0009                     	;# 
   601     000A                     	;# 
   602     000B                     	;# 
   603     000C                     	;# 
   604     000D                     	;# 
   605     000E                     	;# 
   606     000E                     	;# 
   607     000F                     	;# 
   608     0010                     	;# 
   609     0011                     	;# 
   610     0012                     	;# 
   611     0013                     	;# 
   612     0014                     	;# 
   613     0015                     	;# 
   614     0015                     	;# 
   615     0016                     	;# 
   616     0017                     	;# 
   617     0018                     	;# 
   618     0019                     	;# 
   619     001A                     	;# 
   620     001B                     	;# 
   621     001B                     	;# 
   622     001C                     	;# 
   623     001D                     	;# 
   624     001E                     	;# 
   625     001F                     	;# 
   626     0081                     	;# 
   627     0085                     	;# 
   628     0086                     	;# 
   629     0087                     	;# 
   630     0088                     	;# 
   631     0089                     	;# 
   632     008C                     	;# 
   633     008D                     	;# 
   634     008E                     	;# 
   635     0091                     	;# 
   636     0092                     	;# 
   637     0093                     	;# 
   638     0094                     	;# 
   639     0098                     	;# 
   640     0099                     	;# 
   641     009C                     	;# 
   642     009D                     	;# 
   643     009E                     	;# 
   644     009F                     	;# 
   645     010C                     	;# 
   646     010D                     	;# 
   647     010E                     	;# 
   648     010F                     	;# 
   649     018C                     	;# 
   650     018D                     	;# 
   651     0000                     	;# 
   652     0001                     	;# 
   653     0002                     	;# 
   654     0003                     	;# 
   655     0004                     	;# 
   656     0005                     	;# 
   657     0006                     	;# 
   658     0007                     	;# 
   659     0008                     	;# 
   660     0009                     	;# 
   661     000A                     	;# 
   662     000B                     	;# 
   663     000C                     	;# 
   664     000D                     	;# 
   665     000E                     	;# 
   666     000E                     	;# 
   667     000F                     	;# 
   668     0010                     	;# 
   669     0011                     	;# 
   670     0012                     	;# 
   671     0013                     	;# 
   672     0014                     	;# 
   673     0015                     	;# 
   674     0015                     	;# 
   675     0016                     	;# 
   676     0017                     	;# 
   677     0018                     	;# 
   678     0019                     	;# 
   679     001A                     	;# 
   680     001B                     	;# 
   681     001B                     	;# 
   682     001C                     	;# 
   683     001D                     	;# 
   684     001E                     	;# 
   685     001F                     	;# 
   686     0081                     	;# 
   687     0085                     	;# 
   688     0086                     	;# 
   689     0087                     	;# 
   690     0088                     	;# 
   691     0089                     	;# 
   692     008C                     	;# 
   693     008D                     	;# 
   694     008E                     	;# 
   695     0091                     	;# 
   696     0092                     	;# 
   697     0093                     	;# 
   698     0094                     	;# 
   699     0098                     	;# 
   700     0099                     	;# 
   701     009C                     	;# 
   702     009D                     	;# 
   703     009E                     	;# 
   704     009F                     	;# 
   705     010C                     	;# 
   706     010D                     	;# 
   707     010E                     	;# 
   708     010F                     	;# 
   709     018C                     	;# 
   710     018D                     	;# 
   711     0000                     	;# 
   712     0001                     	;# 
   713     0002                     	;# 
   714     0003                     	;# 
   715     0004                     	;# 
   716     0005                     	;# 
   717     0006                     	;# 
   718     0007                     	;# 
   719     0008                     	;# 
   720     0009                     	;# 
   721     000A                     	;# 
   722     000B                     	;# 
   723     000C                     	;# 
   724     000D                     	;# 
   725     000E                     	;# 
   726     000E                     	;# 
   727     000F                     	;# 
   728     0010                     	;# 
   729     0011                     	;# 
   730     0012                     	;# 
   731     0013                     	;# 
   732     0014                     	;# 
   733     0015                     	;# 
   734     0015                     	;# 
   735     0016                     	;# 
   736     0017                     	;# 
   737     0018                     	;# 
   738     0019                     	;# 
   739     001A                     	;# 
   740     001B                     	;# 
   741     001B                     	;# 
   742     001C                     	;# 
   743     001D                     	;# 
   744     001E                     	;# 
   745     001F                     	;# 
   746     0081                     	;# 
   747     0085                     	;# 
   748     0086                     	;# 
   749     0087                     	;# 
   750     0088                     	;# 
   751     0089                     	;# 
   752     008C                     	;# 
   753     008D                     	;# 
   754     008E                     	;# 
   755     0091                     	;# 
   756     0092                     	;# 
   757     0093                     	;# 
   758     0094                     	;# 
   759     0098                     	;# 
   760     0099                     	;# 
   761     009C                     	;# 
   762     009D                     	;# 
   763     009E                     	;# 
   764     009F                     	;# 
   765     010C                     	;# 
   766     010D                     	;# 
   767     010E                     	;# 
   768     010F                     	;# 
   769     018C                     	;# 
   770     018D                     	;# 
   771     0000                     	;# 
   772     0001                     	;# 
   773     0002                     	;# 
   774     0003                     	;# 
   775     0004                     	;# 
   776     0005                     	;# 
   777     0006                     	;# 
   778     0007                     	;# 
   779     0008                     	;# 
   780     0009                     	;# 
   781     000A                     	;# 
   782     000B                     	;# 
   783     000C                     	;# 
   784     000D                     	;# 
   785     000E                     	;# 
   786     000E                     	;# 
   787     000F                     	;# 
   788     0010                     	;# 
   789     0011                     	;# 
   790     0012                     	;# 
   791     0013                     	;# 
   792     0014                     	;# 
   793     0015                     	;# 
   794     0015                     	;# 
   795     0016                     	;# 
   796     0017                     	;# 
   797     0018                     	;# 
   798     0019                     	;# 
   799     001A                     	;# 
   800     001B                     	;# 
   801     001B                     	;# 
   802     001C                     	;# 
   803     001D                     	;# 
   804     001E                     	;# 
   805     001F                     	;# 
   806     0081                     	;# 
   807     0085                     	;# 
   808     0086                     	;# 
   809     0087                     	;# 
   810     0088                     	;# 
   811     0089                     	;# 
   812     008C                     	;# 
   813     008D                     	;# 
   814     008E                     	;# 
   815     0091                     	;# 
   816     0092                     	;# 
   817     0093                     	;# 
   818     0094                     	;# 
   819     0098                     	;# 
   820     0099                     	;# 
   821     009C                     	;# 
   822     009D                     	;# 
   823     009E                     	;# 
   824     009F                     	;# 
   825     010C                     	;# 
   826     010D                     	;# 
   827     010E                     	;# 
   828     010F                     	;# 
   829     018C                     	;# 
   830     018D                     	;# 
   831     0000                     	;# 
   832     0001                     	;# 
   833     0002                     	;# 
   834     0003                     	;# 
   835     0004                     	;# 
   836     0005                     	;# 
   837     0006                     	;# 
   838     0007                     	;# 
   839     0008                     	;# 
   840     0009                     	;# 
   841     000A                     	;# 
   842     000B                     	;# 
   843     000C                     	;# 
   844     000D                     	;# 
   845     000E                     	;# 
   846     000E                     	;# 
   847     000F                     	;# 
   848     0010                     	;# 
   849     0011                     	;# 
   850     0012                     	;# 
   851     0013                     	;# 
   852     0014                     	;# 
   853     0015                     	;# 
   854     0015                     	;# 
   855     0016                     	;# 
   856     0017                     	;# 
   857     0018                     	;# 
   858     0019                     	;# 
   859     001A                     	;# 
   860     001B                     	;# 
   861     001B                     	;# 
   862     001C                     	;# 
   863     001D                     	;# 
   864     001E                     	;# 
   865     001F                     	;# 
   866     0081                     	;# 
   867     0085                     	;# 
   868     0086                     	;# 
   869     0087                     	;# 
   870     0088                     	;# 
   871     0089                     	;# 
   872     008C                     	;# 
   873     008D                     	;# 
   874     008E                     	;# 
   875     0091                     	;# 
   876     0092                     	;# 
   877     0093                     	;# 
   878     0094                     	;# 
   879     0098                     	;# 
   880     0099                     	;# 
   881     009C                     	;# 
   882     009D                     	;# 
   883     009E                     	;# 
   884     009F                     	;# 
   885     010C                     	;# 
   886     010D                     	;# 
   887     010E                     	;# 
   888     010F                     	;# 
   889     018C                     	;# 
   890     018D                     	;# 
   891     0000                     	;# 
   892     0001                     	;# 
   893     0002                     	;# 
   894     0003                     	;# 
   895     0004                     	;# 
   896     0005                     	;# 
   897     0006                     	;# 
   898     0007                     	;# 
   899     0008                     	;# 
   900     0009                     	;# 
   901     000A                     	;# 
   902     000B                     	;# 
   903     000C                     	;# 
   904     000D                     	;# 
   905     000E                     	;# 
   906     000E                     	;# 
   907     000F                     	;# 
   908     0010                     	;# 
   909     0011                     	;# 
   910     0012                     	;# 
   911     0013                     	;# 
   912     0014                     	;# 
   913     0015                     	;# 
   914     0015                     	;# 
   915     0016                     	;# 
   916     0017                     	;# 
   917     0018                     	;# 
   918     0019                     	;# 
   919     001A                     	;# 
   920     001B                     	;# 
   921     001B                     	;# 
   922     001C                     	;# 
   923     001D                     	;# 
   924     001E                     	;# 
   925     001F                     	;# 
   926     0081                     	;# 
   927     0085                     	;# 
   928     0086                     	;# 
   929     0087                     	;# 
   930     0088                     	;# 
   931     0089                     	;# 
   932     008C                     	;# 
   933     008D                     	;# 
   934     008E                     	;# 
   935     0091                     	;# 
   936     0092                     	;# 
   937     0093                     	;# 
   938     0094                     	;# 
   939     0098                     	;# 
   940     0099                     	;# 
   941     009C                     	;# 
   942     009D                     	;# 
   943     009E                     	;# 
   944     009F                     	;# 
   945     010C                     	;# 
   946     010D                     	;# 
   947     010E                     	;# 
   948     010F                     	;# 
   949     018C                     	;# 
   950     018D                     	;# 
   951                           
   952                           	psect	idataBANK0
   953     1527                     __pidataBANK0:
   954                           
   955                           ;initializer for login@attempts
   956     1527  3403               	retlw	3
   957                           
   958                           ;initializer for read_digital_keypad@once
   959     1528  3401               	retlw	1
   960                           
   961                           ;initializer for _control_flag
   962     1529  3401               	retlw	1
   963                           
   964                           ;initializer for _pos
   965     152A  34FF               	retlw	255
   966     152B  34FF               	retlw	255
   967                           
   968                           	psect	idataBANK1
   969     1635                     __pidataBANK1:
   970                           
   971                           ;initializer for main@F1262
   972     1635  3458               	retlw	low (STR_1| (0+32768))
   973     1636  3485               	retlw	high (STR_1| (0+32768))
   974     1637  345E               	retlw	low (STR_2| (0+32768))
   975     1638  3485               	retlw	high (STR_2| (0+32768))
   976     1639  3461               	retlw	low (STR_3| (0+32768))
   977     163A  3485               	retlw	high (STR_3| (0+32768))
   978     163B  3464               	retlw	low (STR_4| (0+32768))
   979     163C  3485               	retlw	high (STR_4| (0+32768))
   980     163D  3467               	retlw	low (STR_5| (0+32768))
   981     163E  3485               	retlw	high (STR_5| (0+32768))
   982     163F  346A               	retlw	low (STR_6| (0+32768))
   983     1640  3485               	retlw	high (STR_6| (0+32768))
   984     1641  345B               	retlw	low (STR_7| (0+32768))
   985     1642  3485               	retlw	high (STR_7| (0+32768))
   986                           
   987                           ;initializer for display_menu@F1279
   988     1643  3443               	retlw	low (STR_21| (0+32768))
   989     1644  3485               	retlw	high (STR_21| (0+32768))
   990     1645  3427               	retlw	low (STR_22| (0+32768))
   991     1646  3485               	retlw	high (STR_22| (0+32768))
   992     1647  34EE               	retlw	low (STR_23| (0+32768))
   993     1648  3484               	retlw	high (STR_23| (0+32768))
   994     1649  34FB               	retlw	low (STR_24| (0+32768))
   995     164A  3484               	retlw	high (STR_24| (0+32768))
   996     164B  343A               	retlw	low (STR_25| (0+32768))
   997     164C  3485               	retlw	high (STR_25| (0+32768))
   998                           
   999                           ;initializer for main@F1253
  1000     164D  344F               	retlw	79
  1001     164E  344E               	retlw	78
  1002     164F  3400               	retlw	0
  1003     0019                     _TXREG	set	25
  1004     0011                     _TMR2	set	17
  1005     0013                     _SSPBUF	set	19
  1006     0008                     _PORTD	set	8
  1007     001E                     _ADRESH	set	30
  1008     0006                     _PORTB	set	6
  1009     0064                     _TXIF	set	100
  1010     00C4                     _CREN	set	196
  1011     00C7                     _SPEN	set	199
  1012     0061                     _TMR2IF	set	97
  1013     0091                     _T2CKPS1	set	145
  1014     0090                     _T2CKPS0	set	144
  1015     00A5                     _SSPEN	set	165
  1016     00A3                     _SSPM3	set	163
  1017     0049                     _RE1	set	73
  1018     004A                     _RE2	set	74
  1019     00FA                     _nDONE	set	250
  1020     00FA                     _GO	set	250
  1021     00F8                     _ADON	set	248
  1022     0092                     _TMR2ON	set	146
  1023     005E                     _PEIE	set	94
  1024     005F                     _GIE	set	95
  1025     0099                     _SPBRG	set	153
  1026     0092                     _PR2	set	146
  1027     0091                     _SSPCON2	set	145
  1028     0093                     _SSPADD	set	147
  1029     0088                     _TRISD	set	136
  1030     009E                     _ADRESL	set	158
  1031     0086                     _TRISB	set	134
  1032     04C2                     _BRGH	set	1218
  1033     0461                     _TMR2IE	set	1121
  1034     048E                     _ACKSTAT	set	1166
  1035     048C                     _ACKEN	set	1164
  1036     048D                     _ACKDT	set	1165
  1037     048B                     _RCEN	set	1163
  1038     048A                     _PEN	set	1162
  1039     0488                     _SEN	set	1160
  1040     04A2                     _R_nW	set	1186
  1041     0449                     _TRISE1	set	1097
  1042     044A                     _TRISE2	set	1098
  1043     04FF                     _ADFM	set	1279
  1044                           
  1045                           	psect	strings
  1046     1000                     __pstrings:
  1047     1000                     stringtab:
  1048     1000                     __stringtab:
  1049                           
  1050                           ;	String table - string pointers are 2 bytes each
  1051     1000  1BFF               	btfsc	btemp+1,7
  1052     1001  280A               	ljmp	stringcode
  1053     1002  1383               	bcf	3,7
  1054     1003  187F               	btfsc	btemp+1,0
  1055     1004  1783               	bsf	3,7
  1056     1005  0800               	movf	0,w
  1057     1006  0A84               	incf	4,f
  1058     1007  1903               	skipnz
  1059     1008  0AFF               	incf	btemp+1,f
  1060     1009  0008               	return
  1061     100A                     stringcode:
  1062     100A  087F               	movf	btemp+1,w
  1063     100B  397F               	andlw	127
  1064     100C  008A               	movwf	10
  1065     100D  0804               	movf	4,w
  1066     100E  0A84               	incf	4,f
  1067     100F  1903               	skipnz
  1068     1010  0AFF               	incf	btemp+1,f
  1069     1011  0082               	movwf	2
  1070     1012                     __stringbase:
  1071     1012                     __end_of__stringtab:
  1072                           
  1073                           	psect	stringtext
  1074     0400                     __pstringtext:
  1075     0400                     STR_16:
  1076     0400  3445               	retlw	69	;'E'
  1077     0401  344E               	retlw	78	;'N'
  1078     0402  3454               	retlw	84	;'T'
  1079     0403  3445               	retlw	69	;'E'
  1080     0404  3452               	retlw	82	;'R'
  1081     0405  3420               	retlw	32	;' '
  1082     0406  3454               	retlw	84	;'T'
  1083     0407  3448               	retlw	72	;'H'
  1084     0408  3445               	retlw	69	;'E'
  1085     0409  3420               	retlw	32	;' '
  1086     040A  3450               	retlw	80	;'P'
  1087     040B  3441               	retlw	65	;'A'
  1088     040C  3453               	retlw	83	;'S'
  1089     040D  3453               	retlw	83	;'S'
  1090     040E  3420               	retlw	32	;' '
  1091     040F  343A               	retlw	58	;':'
  1092     0410  3400               	retlw	0
  1093     0411                     STR_15:
  1094     0411  3454               	retlw	84	;'T'
  1095     0412  3449               	retlw	73	;'I'
  1096     0413  344D               	retlw	77	;'M'
  1097     0414  3445               	retlw	69	;'E'
  1098     0415  3420               	retlw	32	;' '
  1099     0416  3420               	retlw	32	;' '
  1100     0417  3420               	retlw	32	;' '
  1101     0418  3420               	retlw	32	;' '
  1102     0419  3420               	retlw	32	;' '
  1103     041A  3420               	retlw	32	;' '
  1104     041B  3445               	retlw	69	;'E'
  1105     041C  3456               	retlw	86	;'V'
  1106     041D  3420               	retlw	32	;' '
  1107     041E  3420               	retlw	32	;' '
  1108     041F  3453               	retlw	83	;'S'
  1109     0420  3450               	retlw	80	;'P'
  1110     0421  3400               	retlw	0
  1111     0422                     STR_12:
  1112     0422  3444               	retlw	68	;'D'
  1113     0423  344F               	retlw	79	;'O'
  1114     0424  3457               	retlw	87	;'W'
  1115     0425  344E               	retlw	78	;'N'
  1116     0426  344C               	retlw	76	;'L'
  1117     0427  344F               	retlw	79	;'O'
  1118     0428  3441               	retlw	65	;'A'
  1119     0429  3444               	retlw	68	;'D'
  1120     042A  3449               	retlw	73	;'I'
  1121     042B  344E               	retlw	78	;'N'
  1122     042C  3447               	retlw	71	;'G'
  1123     042D  342E               	retlw	46	;'.'
  1124     042E  342E               	retlw	46	;'.'
  1125     042F  342E               	retlw	46	;'.'
  1126     0430  342E               	retlw	46	;'.'
  1127     0431  342E               	retlw	46	;'.'
  1128     0432  3400               	retlw	0
  1129     0433                     STR_10:
  1130     0433  3450               	retlw	80	;'P'
  1131     0434  3452               	retlw	82	;'R'
  1132     0435  3445               	retlw	69	;'E'
  1133     0436  3456               	retlw	86	;'V'
  1134     0437  3420               	retlw	32	;' '
  1135     0438  344D               	retlw	77	;'M'
  1136     0439  3445               	retlw	69	;'E'
  1137     043A  344E               	retlw	78	;'N'
  1138     043B  3455               	retlw	85	;'U'
  1139     043C  3420               	retlw	32	;' '
  1140     043D  342D               	retlw	45	;'-'
  1141     043E  343E               	retlw	62	;'>'
  1142     043F  3420               	retlw	32	;' '
  1143     0440  3453               	retlw	83	;'S'
  1144     0441  3457               	retlw	87	;'W'
  1145     0442  3434               	retlw	52	;'4'
  1146     0443  3400               	retlw	0
  1147     0444                     STR_11:
  1148     0444  3443               	retlw	67	;'C'
  1149     0445  344C               	retlw	76	;'L'
  1150     0446  3445               	retlw	69	;'E'
  1151     0447  3441               	retlw	65	;'A'
  1152     0448  3452               	retlw	82	;'R'
  1153     0449  3420               	retlw	32	;' '
  1154     044A  344C               	retlw	76	;'L'
  1155     044B  344F               	retlw	79	;'O'
  1156     044C  3447               	retlw	71	;'G'
  1157     044D  3420               	retlw	32	;' '
  1158     044E  342D               	retlw	45	;'-'
  1159     044F  343E               	retlw	62	;'>'
  1160     0450  3420               	retlw	32	;' '
  1161     0451  3453               	retlw	83	;'S'
  1162     0452  3457               	retlw	87	;'W'
  1163     0453  3435               	retlw	53	;'5'
  1164     0454  3400               	retlw	0
  1165     0455                     STR_13:
  1166     0455  3445               	retlw	69	;'E'
  1167     0456  344E               	retlw	78	;'N'
  1168     0457  3454               	retlw	84	;'T'
  1169     0458  3445               	retlw	69	;'E'
  1170     0459  3452               	retlw	82	;'R'
  1171     045A  3420               	retlw	32	;' '
  1172     045B  344E               	retlw	78	;'N'
  1173     045C  3445               	retlw	69	;'E'
  1174     045D  3457               	retlw	87	;'W'
  1175     045E  3420               	retlw	32	;' '
  1176     045F  3450               	retlw	80	;'P'
  1177     0460  3441               	retlw	65	;'A'
  1178     0461  3453               	retlw	83	;'S'
  1179     0462  3453               	retlw	83	;'S'
  1180     0463  3420               	retlw	32	;' '
  1181     0464  343A               	retlw	58	;':'
  1182     0465  3400               	retlw	0
  1183     0466                     STR_9:
  1184     0466  3453               	retlw	83	;'S'
  1185     0467  344C               	retlw	76	;'L'
  1186     0468  3420               	retlw	32	;' '
  1187     0469  3420               	retlw	32	;' '
  1188     046A  3454               	retlw	84	;'T'
  1189     046B  3449               	retlw	73	;'I'
  1190     046C  344D               	retlw	77	;'M'
  1191     046D  3445               	retlw	69	;'E'
  1192     046E  3420               	retlw	32	;' '
  1193     046F  3420               	retlw	32	;' '
  1194     0470  3420               	retlw	32	;' '
  1195     0471  3445               	retlw	69	;'E'
  1196     0472  3456               	retlw	86	;'V'
  1197     0473  3420               	retlw	32	;' '
  1198     0474  3453               	retlw	83	;'S'
  1199     0475  3450               	retlw	80	;'P'
  1200     0476  3400               	retlw	0
  1201     0477                     STR_32:
  1202     0477  3452               	retlw	82	;'R'
  1203     0478  3445               	retlw	69	;'E'
  1204     0479  342D               	retlw	45	;'-'
  1205     047A  3445               	retlw	69	;'E'
  1206     047B  344E               	retlw	78	;'N'
  1207     047C  3454               	retlw	84	;'T'
  1208     047D  3445               	retlw	69	;'E'
  1209     047E  3452               	retlw	82	;'R'
  1210     047F  3420               	retlw	32	;' '
  1211     0480  3450               	retlw	80	;'P'
  1212     0481  3441               	retlw	65	;'A'
  1213     0482  3453               	retlw	83	;'S'
  1214     0483  3453               	retlw	83	;'S'
  1215     0484  3420               	retlw	32	;' '
  1216     0485  343A               	retlw	58	;':'
  1217     0486  3400               	retlw	0
  1218     0487                     STR_33:
  1219     0487  3450               	retlw	80	;'P'
  1220     0488  3441               	retlw	65	;'A'
  1221     0489  3453               	retlw	83	;'S'
  1222     048A  3453               	retlw	83	;'S'
  1223     048B  3457               	retlw	87	;'W'
  1224     048C  344F               	retlw	79	;'O'
  1225     048D  3452               	retlw	82	;'R'
  1226     048E  3444               	retlw	68	;'D'
  1227     048F  3420               	retlw	32	;' '
  1228     0490  3443               	retlw	67	;'C'
  1229     0491  3448               	retlw	72	;'H'
  1230     0492  3441               	retlw	65	;'A'
  1231     0493  344E               	retlw	78	;'N'
  1232     0494  3447               	retlw	71	;'G'
  1233     0495  3445               	retlw	69	;'E'
  1234     0496  3400               	retlw	0
  1235     0497                     STR_18:
  1236     0497  3457               	retlw	87	;'W'
  1237     0498  3441               	retlw	65	;'A'
  1238     0499  3449               	retlw	73	;'I'
  1239     049A  3454               	retlw	84	;'T'
  1240     049B  3420               	retlw	32	;' '
  1241     049C  3446               	retlw	70	;'F'
  1242     049D  344F               	retlw	79	;'O'
  1243     049E  3452               	retlw	82	;'R'
  1244     049F  3420               	retlw	32	;' '
  1245     04A0  3420               	retlw	32	;' '
  1246     04A1  3420               	retlw	32	;' '
  1247     04A2  3420               	retlw	32	;' '
  1248     04A3  3453               	retlw	83	;'S'
  1249     04A4  3445               	retlw	69	;'E'
  1250     04A5  3443               	retlw	67	;'C'
  1251     04A6  3400               	retlw	0
  1252     04A7                     STR_17:
  1253     04A7  3459               	retlw	89	;'Y'
  1254     04A8  344F               	retlw	79	;'O'
  1255     04A9  3455               	retlw	85	;'U'
  1256     04AA  3420               	retlw	32	;' '
  1257     04AB  3441               	retlw	65	;'A'
  1258     04AC  3452               	retlw	82	;'R'
  1259     04AD  3445               	retlw	69	;'E'
  1260     04AE  3420               	retlw	32	;' '
  1261     04AF  344C               	retlw	76	;'L'
  1262     04B0  344F               	retlw	79	;'O'
  1263     04B1  3443               	retlw	67	;'C'
  1264     04B2  344B               	retlw	75	;'K'
  1265     04B3  3445               	retlw	69	;'E'
  1266     04B4  3444               	retlw	68	;'D'
  1267     04B5  3400               	retlw	0
  1268     04B6                     STR_14:
  1269     04B6  3445               	retlw	69	;'E'
  1270     04B7  344E               	retlw	78	;'N'
  1271     04B8  3454               	retlw	84	;'T'
  1272     04B9  3445               	retlw	69	;'E'
  1273     04BA  3452               	retlw	82	;'R'
  1274     04BB  3420               	retlw	32	;' '
  1275     04BC  3454               	retlw	84	;'T'
  1276     04BD  3448               	retlw	72	;'H'
  1277     04BE  3445               	retlw	69	;'E'
  1278     04BF  3420               	retlw	32	;' '
  1279     04C0  3454               	retlw	84	;'T'
  1280     04C1  3449               	retlw	73	;'I'
  1281     04C2  344D               	retlw	77	;'M'
  1282     04C3  3445               	retlw	69	;'E'
  1283     04C4  3400               	retlw	0
  1284     04C5                     STR_35:
  1285     04C5  344E               	retlw	78	;'N'
  1286     04C6  344F               	retlw	79	;'O'
  1287     04C7  3454               	retlw	84	;'T'
  1288     04C8  3420               	retlw	32	;' '
  1289     04C9  344D               	retlw	77	;'M'
  1290     04CA  3441               	retlw	65	;'A'
  1291     04CB  3454               	retlw	84	;'T'
  1292     04CC  3443               	retlw	67	;'C'
  1293     04CD  3448               	retlw	72	;'H'
  1294     04CE  3445               	retlw	69	;'E'
  1295     04CF  3444               	retlw	68	;'D'
  1296     04D0  342E               	retlw	46	;'.'
  1297     04D1  342E               	retlw	46	;'.'
  1298     04D2  3400               	retlw	0
  1299     04D3                     STR_20:
  1300     04D3  3441               	retlw	65	;'A'
  1301     04D4  3454               	retlw	84	;'T'
  1302     04D5  3454               	retlw	84	;'T'
  1303     04D6  3445               	retlw	69	;'E'
  1304     04D7  344D               	retlw	77	;'M'
  1305     04D8  3450               	retlw	80	;'P'
  1306     04D9  3454               	retlw	84	;'T'
  1307     04DA  3453               	retlw	83	;'S'
  1308     04DB  3420               	retlw	32	;' '
  1309     04DC  344C               	retlw	76	;'L'
  1310     04DD  3445               	retlw	69	;'E'
  1311     04DE  3446               	retlw	70	;'F'
  1312     04DF  3454               	retlw	84	;'T'
  1313     04E0  3400               	retlw	0
  1314     04E1                     STR_28:
  1315     04E1  344E               	retlw	78	;'N'
  1316     04E2  344F               	retlw	79	;'O'
  1317     04E3  3420               	retlw	32	;' '
  1318     04E4  344C               	retlw	76	;'L'
  1319     04E5  344F               	retlw	79	;'O'
  1320     04E6  3447               	retlw	71	;'G'
  1321     04E7  3453               	retlw	83	;'S'
  1322     04E8  342E               	retlw	46	;'.'
  1323     04E9  342E               	retlw	46	;'.'
  1324     04EA  342E               	retlw	46	;'.'
  1325     04EB  342E               	retlw	46	;'.'
  1326     04EC  342E               	retlw	46	;'.'
  1327     04ED  3400               	retlw	0
  1328     04EE                     STR_23:
  1329     04EE  3464               	retlw	100	;'d'
  1330     04EF  346F               	retlw	111	;'o'
  1331     04F0  3477               	retlw	119	;'w'
  1332     04F1  346E               	retlw	110	;'n'
  1333     04F2  346C               	retlw	108	;'l'
  1334     04F3  346F               	retlw	111	;'o'
  1335     04F4  3461               	retlw	97	;'a'
  1336     04F5  3464               	retlw	100	;'d'
  1337     04F6  3420               	retlw	32	;' '
  1338     04F7  346C               	retlw	108	;'l'
  1339     04F8  346F               	retlw	111	;'o'
  1340     04F9  3467               	retlw	103	;'g'
  1341     04FA  3400               	retlw	0
  1342     04FB                     STR_24:
  1343     04FB  3463               	retlw	99	;'c'
  1344     04FC  3468               	retlw	104	;'h'
  1345     04FD  3461               	retlw	97	;'a'
  1346     04FE  346E               	retlw	110	;'n'
  1347     04FF  3467               	retlw	103	;'g'
  1348     0500  3465               	retlw	101	;'e'
  1349     0501  3420               	retlw	32	;' '
  1350     0502  3470               	retlw	112	;'p'
  1351     0503  3473               	retlw	115	;'s'
  1352     0504  3477               	retlw	119	;'w'
  1353     0505  3464               	retlw	100	;'d'
  1354     0506  3400               	retlw	0
  1355     0507                     STR_29:
  1356     0507  344E               	retlw	78	;'N'
  1357     0508  344F               	retlw	79	;'O'
  1358     0509  3420               	retlw	32	;' '
  1359     050A  344C               	retlw	76	;'L'
  1360     050B  344F               	retlw	79	;'O'
  1361     050C  3447               	retlw	71	;'G'
  1362     050D  3453               	retlw	83	;'S'
  1363     050E  3420               	retlw	32	;' '
  1364     050F  3454               	retlw	84	;'T'
  1365     0510  344F               	retlw	79	;'O'
  1366     0511  3400               	retlw	0
  1367     0512                     STR_19:
  1368     0512  3457               	retlw	87	;'W'
  1369     0513  3452               	retlw	82	;'R'
  1370     0514  344F               	retlw	79	;'O'
  1371     0515  344E               	retlw	78	;'N'
  1372     0516  3447               	retlw	71	;'G'
  1373     0517  3420               	retlw	32	;' '
  1374     0518  3450               	retlw	80	;'P'
  1375     0519  3441               	retlw	65	;'A'
  1376     051A  3453               	retlw	83	;'S'
  1377     051B  3453               	retlw	83	;'S'
  1378     051C  3400               	retlw	0
  1379     051D                     STR_34:
  1380     051D  3453               	retlw	83	;'S'
  1381     051E  3455               	retlw	85	;'U'
  1382     051F  3443               	retlw	67	;'C'
  1383     0520  3443               	retlw	67	;'C'
  1384     0521  3445               	retlw	69	;'E'
  1385     0522  3453               	retlw	83	;'S'
  1386     0523  3453               	retlw	83	;'S'
  1387     0524  3421               	retlw	33	;'!'
  1388     0525  3421               	retlw	33	;'!'
  1389     0526  3400               	retlw	0
  1390     0527                     STR_22:
  1391     0527  3463               	retlw	99	;'c'
  1392     0528  346C               	retlw	108	;'l'
  1393     0529  3465               	retlw	101	;'e'
  1394     052A  3461               	retlw	97	;'a'
  1395     052B  3472               	retlw	114	;'r'
  1396     052C  3420               	retlw	32	;' '
  1397     052D  346C               	retlw	108	;'l'
  1398     052E  346F               	retlw	111	;'o'
  1399     052F  3467               	retlw	103	;'g'
  1400     0530  3400               	retlw	0
  1401     0531                     STR_30:
  1402     0531  3444               	retlw	68	;'D'
  1403     0532  344F               	retlw	79	;'O'
  1404     0533  3457               	retlw	87	;'W'
  1405     0534  344E               	retlw	78	;'N'
  1406     0535  344C               	retlw	76	;'L'
  1407     0536  344F               	retlw	79	;'O'
  1408     0537  3441               	retlw	65	;'A'
  1409     0538  3444               	retlw	68	;'D'
  1410     0539  3400               	retlw	0
  1411     053A                     STR_25:
  1412     053A  3473               	retlw	115	;'s'
  1413     053B  3465               	retlw	101	;'e'
  1414     053C  3474               	retlw	116	;'t'
  1415     053D  3420               	retlw	32	;' '
  1416     053E  3474               	retlw	116	;'t'
  1417     053F  3469               	retlw	105	;'i'
  1418     0540  346D               	retlw	109	;'m'
  1419     0541  3465               	retlw	101	;'e'
  1420     0542  3400               	retlw	0
  1421     0543                     STR_21:
  1422     0543  3476               	retlw	118	;'v'
  1423     0544  3469               	retlw	105	;'i'
  1424     0545  3465               	retlw	101	;'e'
  1425     0546  3477               	retlw	119	;'w'
  1426     0547  3420               	retlw	32	;' '
  1427     0548  346C               	retlw	108	;'l'
  1428     0549  346F               	retlw	111	;'o'
  1429     054A  3467               	retlw	103	;'g'
  1430     054B  3400               	retlw	0
  1431     054C                     STR_8:
  1432     054C  3430               	retlw	48	;'0'
  1433     054D  3430               	retlw	48	;'0'
  1434     054E  3430               	retlw	48	;'0'
  1435     054F  3430               	retlw	48	;'0'
  1436     0550  3400               	retlw	0
  1437     0551                     STR_26:
  1438     0551  342D               	retlw	45	;'-'
  1439     0552  343E               	retlw	62	;'>'
  1440     0553  3420               	retlw	32	;' '
  1441     0554  3400               	retlw	0
  1442     0555                     STR_31:
  1443     0555  3420               	retlw	32	;' '
  1444     0556  3420               	retlw	32	;' '
  1445     0557  3400               	retlw	0
  1446     0558                     STR_1:
  1447     0558  3443               	retlw	67	;'C'
  1448     0559  3420               	retlw	32	;' '
  1449     055A  3400               	retlw	0
  1450     055B                     STR_7:
  1451     055B  3452               	retlw	82	;'R'
  1452     055C  3420               	retlw	32	;' '
  1453     055D  3400               	retlw	0
  1454     055E                     STR_2:
  1455     055E  3447               	retlw	71	;'G'
  1456     055F  3431               	retlw	49	;'1'
  1457     0560  3400               	retlw	0
  1458     0561                     STR_3:
  1459     0561  3447               	retlw	71	;'G'
  1460     0562  3432               	retlw	50	;'2'
  1461     0563  3400               	retlw	0
  1462     0564                     STR_4:
  1463     0564  3447               	retlw	71	;'G'
  1464     0565  3433               	retlw	51	;'3'
  1465     0566  3400               	retlw	0
  1466     0567                     STR_5:
  1467     0567  3447               	retlw	71	;'G'
  1468     0568  3434               	retlw	52	;'4'
  1469     0569  3400               	retlw	0
  1470     056A                     STR_6:
  1471     056A  3447               	retlw	71	;'G'
  1472     056B  3435               	retlw	53	;'5'
  1473     056C  3400               	retlw	0
  1474     0551                     
  1475                           	psect	cinit
  1476     000F                     start_initialization:	
  1477                           ; #config settings
  1478                           
  1479     000F                     __initialization:
  1480                           
  1481                           ; Initialize objects allocated to BANK1
  1482     000F  1383               	bcf	3,7	;select IRP bank0
  1483     0010  30EC               	movlw	low (__pdataBANK1+27)
  1484     0011  00FD               	movwf	btemp+-1
  1485     0012  3016               	movlw	high __pidataBANK1
  1486     0013  00FE               	movwf	btemp
  1487     0014  3035               	movlw	low __pidataBANK1
  1488     0015  00FF               	movwf	btemp+1
  1489     0016  30D1               	movlw	low __pdataBANK1
  1490     0017  0084               	movwf	4
  1491     0018  160A  118A  25E0  120A  118A  	fcall	init_ram0
  1492                           
  1493                           ; Initialize objects allocated to BANK0
  1494     001D  3070               	movlw	low (__pdataBANK0+5)
  1495     001E  00FD               	movwf	btemp+-1
  1496     001F  3015               	movlw	high __pidataBANK0
  1497     0020  00FE               	movwf	btemp
  1498     0021  3027               	movlw	low __pidataBANK0
  1499     0022  00FF               	movwf	btemp+1
  1500     0023  306B               	movlw	low __pdataBANK0
  1501     0024  0084               	movwf	4
  1502     0025  160A  118A  25E0  120A  118A  	fcall	init_ram0
  1503                           
  1504                           ; Clear objects allocated to BANK1
  1505     002A  30A0               	movlw	low __pbssBANK1
  1506     002B  0084               	movwf	4
  1507     002C  30D1               	movlw	low (__pbssBANK1+49)
  1508     002D  160A  118A  2539  120A  118A  	fcall	clear_ram0
  1509                           
  1510                           ; Clear objects allocated to BANK0
  1511     0032  304D               	movlw	low __pbssBANK0
  1512     0033  0084               	movwf	4
  1513     0034  306B               	movlw	low (__pbssBANK0+30)
  1514     0035  160A  118A  2539  120A  118A  	fcall	clear_ram0
  1515                           
  1516                           ; Clear objects allocated to COMMON
  1517     003A  01FA               	clrf	__pbssCOMMON& (0+127)
  1518     003B  01FB               	clrf	(__pbssCOMMON+1)& (0+127)
  1519     003C                     end_of_initialization:	
  1520                           ;End of C runtime variable initialization code
  1521                           
  1522     003C                     __end_of__initialization:
  1523     003C  0183               	clrf	3
  1524     003D  120A  118A  2840   	ljmp	_main	;jump to C main() function
  1525                           
  1526                           	psect	bssCOMMON
  1527     007A                     __pbssCOMMON:
  1528     007A                     _event:
  1529     007A                     	ds	2
  1530                           
  1531                           	psect	bssBANK0
  1532     004D                     __pbssBANK0:
  1533     004D                     _clock_reg:
  1534     004D                     	ds	3
  1535     0050                     view_log@pos:
  1536     0050                     	ds	2
  1537     0052                     set_time@curs_flag:
  1538     0052                     	ds	2
  1539     0054                     set_time@i:
  1540     0054                     	ds	2
  1541     0056                     isr@count:
  1542     0056                     	ds	2
  1543     0058                     change_pass@clear_flag:
  1544     0058                     	ds	1
  1545     0059                     change_pass@i:
  1546     0059                     	ds	1
  1547     005A                     login@i:
  1548     005A                     	ds	1
  1549     005B                     _return_time:
  1550     005B                     	ds	1
  1551     005C                     _sec:
  1552     005C                     	ds	1
  1553     005D                     _menu_pos:
  1554     005D                     	ds	1
  1555     005E                     _set_tm:
  1556     005E                     	ds	9
  1557     0067                     login@upassword:
  1558     0067                     	ds	4
  1559                           
  1560                           	psect	dataBANK0
  1561     006B                     __pdataBANK0:
  1562     006B                     login@attempts:
  1563     006B                     	ds	1
  1564     006C                     read_digital_keypad@once:
  1565     006C                     	ds	1
  1566     006D                     _control_flag:
  1567     006D                     	ds	1
  1568     006E                     _pos:
  1569     006E                     	ds	2
  1570                           
  1571                           	psect	bssBANK1
  1572     00A0                     __pbssBANK1:
  1573     00A0                     _fetch_data:
  1574     00A0                     	ds	17
  1575     00B1                     _log:
  1576     00B1                     	ds	11
  1577     00BC                     _time:
  1578     00BC                     	ds	9
  1579     00C5                     change_pass@re_pass:
  1580     00C5                     	ds	4
  1581     00C9                     change_pass@new_pass:
  1582     00C9                     	ds	4
  1583     00CD                     login@spassword:
  1584     00CD                     	ds	4
  1585                           
  1586                           	psect	dataBANK1
  1587     00D1                     __pdataBANK1:
  1588     00D1                     main@F1262:
  1589     00D1                     	ds	14
  1590     00DF                     display_menu@F1279:
  1591     00DF                     	ds	10
  1592     00E9                     main@F1253:
  1593     00E9                     	ds	3
  1594                           
  1595                           	psect	inittext
  1596     15DC                     init_fetch0:	
  1597                           ;	Called with low address in FSR and high address in W
  1598                           
  1599     15DC  087E               	movf	btemp,w
  1600     15DD  008A               	movwf	10
  1601     15DE  087F               	movf	btemp+1,w
  1602     15DF  0082               	movwf	2
  1603     15E0                     init_ram0:	
  1604                           ;Called with:
  1605                           ;	high address of idata address in btemp 
  1606                           ;	low address of idata address in btemp+1 
  1607                           ;	low address of data in FSR
  1608                           ;	high address + 1 of data in btemp-1
  1609                           
  1610     15E0  160A  118A  25DC  160A  118A  	fcall	init_fetch0
  1611     15E5  0080               	movwf	0
  1612     15E6  0A84               	incf	4,f
  1613     15E7  0804               	movf	4,w
  1614     15E8  067D               	xorwf	btemp+-1,w
  1615     15E9  1903               	btfsc	3,2
  1616     15EA  3400               	retlw	0
  1617     15EB  0AFF               	incf	btemp+1,f
  1618     15EC  1903               	btfsc	3,2
  1619     15ED  0AFE               	incf	btemp,f
  1620     15EE  2DE0               	goto	init_ram0
  1621                           
  1622                           	psect	clrtext
  1623     1539                     clear_ram0:	
  1624                           ;	Called with FSR containing the base address, and
  1625                           ;	W with the last address+1
  1626                           
  1627     1539  0064               	clrwdt	;clear the watchdog before getting into this loop
  1628     153A                     clrloop0:
  1629     153A  0180               	clrf	0	;clear RAM location pointed to by FSR
  1630     153B  0A84               	incf	4,f	;increment pointer
  1631     153C  0604               	xorwf	4,w	;XOR with final address
  1632     153D  1903               	btfsc	3,2	;have we reached the end yet?
  1633     153E  3400               	retlw	0	;all done for this memory range, return
  1634     153F  0604               	xorwf	4,w	;XOR again to restore value
  1635     1540  2D3A               	goto	clrloop0	;do the next byte
  1636                           
  1637                           	psect	cstackCOMMON
  1638     0070                     __pcstackCOMMON:
  1639     0070                     ?_init_digital_keypad:
  1640     0070                     ?_init_adc:	
  1641                           ; 1 bytes @ 0x0
  1642                           
  1643     0070                     ?_init_clcd:	
  1644                           ; 1 bytes @ 0x0
  1645                           
  1646     0070                     ?_init_ds1307:	
  1647                           ; 1 bytes @ 0x0
  1648                           
  1649     0070                     ?_init_timer2:	
  1650                           ; 1 bytes @ 0x0
  1651                           
  1652     0070                     ?_read_digital_keypad:	
  1653                           ; 1 bytes @ 0x0
  1654                           
  1655     0070                     ?_login_screen:	
  1656                           ; 1 bytes @ 0x0
  1657                           
  1658     0070                     ?_clear_display:	
  1659                           ; 1 bytes @ 0x0
  1660                           
  1661     0070                     ?_save_time:	
  1662                           ; 1 bytes @ 0x0
  1663                           
  1664     0070                     ?_clear_log:	
  1665                           ; 1 bytes @ 0x0
  1666                           
  1667     0070                     ?_download_log:	
  1668                           ; 1 bytes @ 0x0
  1669                           
  1670     0070                     ?_read_ds1307:	
  1671                           ; 1 bytes @ 0x0
  1672                           
  1673     0070                     ?_i2c_start:	
  1674                           ; 1 bytes @ 0x0
  1675                           
  1676     0070                     ?_i2c_rep_start:	
  1677                           ; 1 bytes @ 0x0
  1678                           
  1679     0070                     ?_i2c_read:	
  1680                           ; 1 bytes @ 0x0
  1681                           
  1682     0070                     ?_i2c_stop:	
  1683                           ; 1 bytes @ 0x0
  1684                           
  1685     0070                     ?_eeprom_at24C04_read:	
  1686                           ; 1 bytes @ 0x0
  1687                           
  1688     0070                     ?_fetch_data_from_memory:	
  1689                           ; 1 bytes @ 0x0
  1690                           
  1691     0070                     ?_init:	
  1692                           ; 1 bytes @ 0x0
  1693                           
  1694     0070                     ?_main:	
  1695                           ; 1 bytes @ 0x0
  1696                           
  1697     0070                     ?_init_display_controller:	
  1698                           ; 1 bytes @ 0x0
  1699                           
  1700     0070                     ?_cursor_on:	
  1701                           ; 1 bytes @ 0x0
  1702                           
  1703     0070                     ?_cursor_off:	
  1704                           ; 1 bytes @ 0x0
  1705                           
  1706     0070                     ?_i2c_wait_for_idle:	
  1707                           ; 1 bytes @ 0x0
  1708                           
  1709     0070                     ?_get_time:	
  1710                           ; 1 bytes @ 0x0
  1711                           
  1712     0070                     ?_log_event_write:	
  1713                           ; 1 bytes @ 0x0
  1714                           
  1715     0070                     ?_isr:	
  1716                           ; 1 bytes @ 0x0
  1717                           
  1718     0070                     ??_isr:	
  1719                           ; 1 bytes @ 0x0
  1720                           
  1721     0070                     ?_putchar:	
  1722                           ; 1 bytes @ 0x0
  1723                           
  1724     0070                     ?_i2c_write:	
  1725                           ; 1 bytes @ 0x0
  1726                           
  1727                           
  1728                           ; 2 bytes @ 0x0
  1729     0070                     	ds	2
  1730     0072                     ??_init_digital_keypad:
  1731     0072                     ??_init_adc:	
  1732                           ; 1 bytes @ 0x2
  1733                           
  1734     0072                     ??_init_timer2:	
  1735                           ; 1 bytes @ 0x2
  1736                           
  1737     0072                     ??_read_digital_keypad:	
  1738                           ; 1 bytes @ 0x2
  1739                           
  1740     0072                     ?_strcpy:	
  1741                           ; 1 bytes @ 0x2
  1742                           
  1743     0072                     ??_i2c_start:	
  1744                           ; 1 bytes @ 0x2
  1745                           
  1746     0072                     ??_i2c_write:	
  1747                           ; 1 bytes @ 0x2
  1748                           
  1749     0072                     ??_i2c_rep_start:	
  1750                           ; 1 bytes @ 0x2
  1751                           
  1752     0072                     ??_i2c_read:	
  1753                           ; 1 bytes @ 0x2
  1754                           
  1755     0072                     ??_i2c_stop:	
  1756                           ; 1 bytes @ 0x2
  1757                           
  1758     0072                     ?_clcd_write:	
  1759                           ; 1 bytes @ 0x2
  1760                           
  1761     0072                     ??_i2c_wait_for_idle:	
  1762                           ; 1 bytes @ 0x2
  1763                           
  1764     0072                     ??_putchar:	
  1765                           ; 1 bytes @ 0x2
  1766                           
  1767     0072                     ?___bmul:	
  1768                           ; 1 bytes @ 0x2
  1769                           
  1770     0072                     ?_read_adc:	
  1771                           ; 1 bytes @ 0x2
  1772                           
  1773     0072                     ?_strncmp:	
  1774                           ; 2 bytes @ 0x2
  1775                           
  1776     0072                     ?___awdiv:	
  1777                           ; 2 bytes @ 0x2
  1778                           
  1779     0072                     ?___awmod:	
  1780                           ; 2 bytes @ 0x2
  1781                           
  1782     0072                     ?___lwmod:	
  1783                           ; 2 bytes @ 0x2
  1784                           
  1785     0072                     ?___lldiv:	
  1786                           ; 2 bytes @ 0x2
  1787                           
  1788     0072                     clcd_write@mode:	
  1789                           ; 4 bytes @ 0x2
  1790                           
  1791     0072                     i2c_read@ack:	
  1792                           ; 1 bytes @ 0x2
  1793                           
  1794     0072                     i2c_write@data:	
  1795                           ; 1 bytes @ 0x2
  1796                           
  1797     0072                     putchar@data:	
  1798                           ; 1 bytes @ 0x2
  1799                           
  1800     0072                     ___bmul@multiplicand:	
  1801                           ; 1 bytes @ 0x2
  1802                           
  1803     0072                     strncmp@r:	
  1804                           ; 1 bytes @ 0x2
  1805                           
  1806     0072                     ___awdiv@divisor:	
  1807                           ; 1 bytes @ 0x2
  1808                           
  1809     0072                     ___awmod@divisor:	
  1810                           ; 2 bytes @ 0x2
  1811                           
  1812     0072                     ___lwmod@divisor:	
  1813                           ; 2 bytes @ 0x2
  1814                           
  1815     0072                     strcpy@src:	
  1816                           ; 2 bytes @ 0x2
  1817                           
  1818     0072                     ___lldiv@divisor:	
  1819                           ; 2 bytes @ 0x2
  1820                           
  1821                           
  1822                           ; 4 bytes @ 0x2
  1823     0072                     	ds	1
  1824     0073                     ?_write_ds1307:
  1825     0073                     ??_clcd_write:	
  1826                           ; 1 bytes @ 0x3
  1827                           
  1828     0073                     ?_eeprom_at24C04_byte_write:	
  1829                           ; 1 bytes @ 0x3
  1830                           
  1831     0073                     ?_puts:	
  1832                           ; 1 bytes @ 0x3
  1833                           
  1834     0073                     ??___bmul:	
  1835                           ; 1 bytes @ 0x3
  1836                           
  1837     0073                     read_digital_keypad@mode:	
  1838                           ; 1 bytes @ 0x3
  1839                           
  1840     0073                     write_ds1307@data:	
  1841                           ; 1 bytes @ 0x3
  1842                           
  1843     0073                     i2c_read@data:	
  1844                           ; 1 bytes @ 0x3
  1845                           
  1846     0073                     eeprom_at24C04_byte_write@data:	
  1847                           ; 1 bytes @ 0x3
  1848                           
  1849     0073                     ___bmul@product:	
  1850                           ; 1 bytes @ 0x3
  1851                           
  1852     0073                     puts@s:	
  1853                           ; 1 bytes @ 0x3
  1854                           
  1855     0073                     strncmp@n:	
  1856                           ; 2 bytes @ 0x3
  1857                           
  1858                           
  1859                           ; 2 bytes @ 0x3
  1860     0073                     	ds	1
  1861     0074                     ??_read_adc:
  1862     0074                     ??_strcpy:	
  1863                           ; 1 bytes @ 0x4
  1864                           
  1865     0074                     ??_read_ds1307:	
  1866                           ; 1 bytes @ 0x4
  1867                           
  1868     0074                     ??_write_ds1307:	
  1869                           ; 1 bytes @ 0x4
  1870                           
  1871     0074                     ??_eeprom_at24C04_read:	
  1872                           ; 1 bytes @ 0x4
  1873                           
  1874     0074                     ??_eeprom_at24C04_byte_write:	
  1875                           ; 1 bytes @ 0x4
  1876                           
  1877     0074                     read_ds1307@addr:	
  1878                           ; 1 bytes @ 0x4
  1879                           
  1880     0074                     write_ds1307@addr:	
  1881                           ; 1 bytes @ 0x4
  1882                           
  1883     0074                     eeprom_at24C04_read@addr:	
  1884                           ; 1 bytes @ 0x4
  1885                           
  1886     0074                     eeprom_at24C04_byte_write@addr:	
  1887                           ; 1 bytes @ 0x4
  1888                           
  1889     0074                     ___bmul@multiplier:	
  1890                           ; 1 bytes @ 0x4
  1891                           
  1892     0074                     read_adc@adc_reg_val:	
  1893                           ; 1 bytes @ 0x4
  1894                           
  1895     0074                     ___awdiv@dividend:	
  1896                           ; 2 bytes @ 0x4
  1897                           
  1898     0074                     ___awmod@dividend:	
  1899                           ; 2 bytes @ 0x4
  1900                           
  1901     0074                     ___lwmod@dividend:	
  1902                           ; 2 bytes @ 0x4
  1903                           
  1904                           
  1905                           ; 2 bytes @ 0x4
  1906     0074                     	ds	1
  1907     0075                     ?_eeprom_at24C04_str_write:
  1908     0075                     ??_save_time:	
  1909                           ; 1 bytes @ 0x5
  1910                           
  1911     0075                     ??_strncmp:	
  1912                           ; 1 bytes @ 0x5
  1913                           
  1914     0075                     ??_puts:	
  1915                           ; 1 bytes @ 0x5
  1916                           
  1917     0075                     clcd_write@byte:	
  1918                           ; 1 bytes @ 0x5
  1919                           
  1920     0075                     read_ds1307@data:	
  1921                           ; 1 bytes @ 0x5
  1922                           
  1923     0075                     eeprom_at24C04_read@data:	
  1924                           ; 1 bytes @ 0x5
  1925                           
  1926     0075                     eeprom_at24C04_str_write@str:	
  1927                           ; 1 bytes @ 0x5
  1928                           
  1929                           
  1930                           ; 2 bytes @ 0x5
  1931     0075                     	ds	1
  1932     0076                     ??_init_ds1307:
  1933     0076                     ??_clear_display:	
  1934                           ; 1 bytes @ 0x6
  1935                           
  1936     0076                     ?_clcd_print:	
  1937                           ; 1 bytes @ 0x6
  1938                           
  1939     0076                     ??_fetch_data_from_memory:	
  1940                           ; 1 bytes @ 0x6
  1941                           
  1942     0076                     ??_init_display_controller:	
  1943                           ; 1 bytes @ 0x6
  1944                           
  1945     0076                     ??_cursor_on:	
  1946                           ; 1 bytes @ 0x6
  1947                           
  1948     0076                     ??_cursor_off:	
  1949                           ; 1 bytes @ 0x6
  1950                           
  1951     0076                     ??_get_time:	
  1952                           ; 1 bytes @ 0x6
  1953                           
  1954     0076                     ??___awdiv:	
  1955                           ; 1 bytes @ 0x6
  1956                           
  1957     0076                     ??___awmod:	
  1958                           ; 1 bytes @ 0x6
  1959                           
  1960     0076                     ??___lwmod:	
  1961                           ; 1 bytes @ 0x6
  1962                           
  1963     0076                     ?___lwdiv:	
  1964                           ; 1 bytes @ 0x6
  1965                           
  1966     0076                     init_ds1307@dummy:	
  1967                           ; 2 bytes @ 0x6
  1968                           
  1969     0076                     fetch_data_from_memory@i:	
  1970                           ; 1 bytes @ 0x6
  1971                           
  1972     0076                     ___awdiv@counter:	
  1973                           ; 1 bytes @ 0x6
  1974                           
  1975     0076                     ___awmod@counter:	
  1976                           ; 1 bytes @ 0x6
  1977                           
  1978     0076                     ___lwmod@counter:	
  1979                           ; 1 bytes @ 0x6
  1980                           
  1981     0076                     strcpy@d:	
  1982                           ; 1 bytes @ 0x6
  1983                           
  1984     0076                     clcd_print@str:	
  1985                           ; 1 bytes @ 0x6
  1986                           
  1987     0076                     ___lwdiv@divisor:	
  1988                           ; 2 bytes @ 0x6
  1989                           
  1990     0076                     ___lldiv@dividend:	
  1991                           ; 2 bytes @ 0x6
  1992                           
  1993                           
  1994                           ; 4 bytes @ 0x6
  1995     0076                     	ds	1
  1996     0077                     ??_eeprom_at24C04_str_write:
  1997     0077                     cursor_on@address:	
  1998                           ; 1 bytes @ 0x7
  1999                           
  2000     0077                     eeprom_at24C04_str_write@addr:	
  2001                           ; 1 bytes @ 0x7
  2002                           
  2003     0077                     save_time@data:	
  2004                           ; 1 bytes @ 0x7
  2005                           
  2006     0077                     fetch_data_from_memory@addr:	
  2007                           ; 1 bytes @ 0x7
  2008                           
  2009     0077                     ___awdiv@sign:	
  2010                           ; 1 bytes @ 0x7
  2011                           
  2012     0077                     ___awmod@sign:	
  2013                           ; 1 bytes @ 0x7
  2014                           
  2015     0077                     strcpy@dest:	
  2016                           ; 1 bytes @ 0x7
  2017                           
  2018     0077                     strncmp@l:	
  2019                           ; 1 bytes @ 0x7
  2020                           
  2021                           
  2022                           ; 1 bytes @ 0x7
  2023     0077                     	ds	1
  2024     0078                     ??_init_clcd:
  2025     0078                     ??_clear_log:	
  2026                           ; 1 bytes @ 0x8
  2027                           
  2028     0078                     clcd_print@addr:	
  2029                           ; 1 bytes @ 0x8
  2030                           
  2031     0078                     eeprom_at24C04_str_write@i:	
  2032                           ; 1 bytes @ 0x8
  2033                           
  2034     0078                     clear_log@i:	
  2035                           ; 1 bytes @ 0x8
  2036                           
  2037     0078                     ___awdiv@quotient:	
  2038                           ; 2 bytes @ 0x8
  2039                           
  2040     0078                     ___lwdiv@dividend:	
  2041                           ; 2 bytes @ 0x8
  2042                           
  2043                           
  2044                           ; 2 bytes @ 0x8
  2045     0078                     	ds	1
  2046     0079                     ??_login_screen:
  2047     0079                     ??_clcd_print:	
  2048                           ; 1 bytes @ 0x9
  2049                           
  2050     0079                     ?_display_menu:	
  2051                           ; 1 bytes @ 0x9
  2052                           
  2053     0079                     ??_log_event_write:	
  2054                           ; 1 bytes @ 0x9
  2055                           
  2056     0079                     log_event_write@addr:	
  2057                           ; 1 bytes @ 0x9
  2058                           
  2059     0079                     display_menu@reset:	
  2060                           ; 1 bytes @ 0x9
  2061                           
  2062     0079                     view_log@key:	
  2063                           ; 1 bytes @ 0x9
  2064                           
  2065                           
  2066                           ; 1 bytes @ 0x9
  2067     0079                     	ds	1
  2068     007A                     ??_init:
  2069     007A                     ??_clcd_putch:	
  2070                           ; 1 bytes @ 0xA
  2071                           
  2072     007A                     ??___lwdiv:	
  2073                           ; 1 bytes @ 0xA
  2074                           
  2075                           
  2076                           	psect	cstackBANK0
  2077     0020                     __pcstackBANK0:	
  2078                           ; 1 bytes @ 0xA
  2079                           
  2080     0020                     ?_log_event:
  2081     0020                     ??_display_menu:	
  2082                           ; 1 bytes @ 0x0
  2083                           
  2084     0020                     ?_view_log:	
  2085                           ; 1 bytes @ 0x0
  2086                           
  2087     0020                     ??_download_log:	
  2088                           ; 1 bytes @ 0x0
  2089                           
  2090     0020                     ?_clcd_putch:	
  2091                           ; 1 bytes @ 0x0
  2092                           
  2093     0020                     ??___lldiv:	
  2094                           ; 1 bytes @ 0x0
  2095                           
  2096     0020                     clcd_putch@addr:	
  2097                           ; 1 bytes @ 0x0
  2098                           
  2099     0020                     log_event@speed:	
  2100                           ; 1 bytes @ 0x0
  2101                           
  2102     0020                     view_log@reset:	
  2103                           ; 1 bytes @ 0x0
  2104                           
  2105     0020                     ___lwdiv@quotient:	
  2106                           ; 2 bytes @ 0x0
  2107                           
  2108                           
  2109                           ; 2 bytes @ 0x0
  2110     0020                     	ds	1
  2111     0021                     ??_log_event:
  2112     0021                     clcd_putch@data:	
  2113                           ; 1 bytes @ 0x1
  2114                           
  2115     0021                     ___lldiv@quotient:	
  2116                           ; 1 bytes @ 0x1
  2117                           
  2118                           
  2119                           ; 4 bytes @ 0x1
  2120     0021                     	ds	1
  2121     0022                     ?_display_dashboard:
  2122     0022                     ?_login:	
  2123                           ; 1 bytes @ 0x2
  2124                           
  2125     0022                     ??_view_log:	
  2126                           ; 1 bytes @ 0x2
  2127                           
  2128     0022                     ?_change_pass:	
  2129                           ; 1 bytes @ 0x2
  2130                           
  2131     0022                     ?_set_time:	
  2132                           ; 1 bytes @ 0x2
  2133                           
  2134     0022                     display_dashboard@speed:	
  2135                           ; 1 bytes @ 0x2
  2136                           
  2137     0022                     login@key:	
  2138                           ; 1 bytes @ 0x2
  2139                           
  2140     0022                     set_time@reset:	
  2141                           ; 1 bytes @ 0x2
  2142                           
  2143     0022                     ___lwdiv@counter:	
  2144                           ; 1 bytes @ 0x2
  2145                           
  2146     0022                     change_pass@reset:	
  2147                           ; 1 bytes @ 0x2
  2148                           
  2149                           
  2150                           ; 2 bytes @ 0x2
  2151     0022                     	ds	1
  2152     0023                     ??_display_dashboard:
  2153     0023                     ??_login:	
  2154                           ; 1 bytes @ 0x3
  2155                           
  2156     0023                     ??_set_time:	
  2157                           ; 1 bytes @ 0x3
  2158                           
  2159     0023                     log_event@event:	
  2160                           ; 1 bytes @ 0x3
  2161                           
  2162     0023                     download_log@i:	
  2163                           ; 1 bytes @ 0x3
  2164                           
  2165                           
  2166                           ; 2 bytes @ 0x3
  2167     0023                     	ds	1
  2168     0024                     ??_change_pass:
  2169     0024                     display_menu@menu:	
  2170                           ; 1 bytes @ 0x4
  2171                           
  2172                           
  2173                           ; 10 bytes @ 0x4
  2174     0024                     	ds	1
  2175     0025                     display_dashboard@event:
  2176     0025                     set_time@key:	
  2177                           ; 1 bytes @ 0x5
  2178                           
  2179     0025                     ___lldiv@counter:	
  2180                           ; 1 bytes @ 0x5
  2181                           
  2182                           
  2183                           ; 1 bytes @ 0x5
  2184     0025                     	ds	1
  2185     0026                     ?_init_i2c:
  2186     0026                     ?_init_uart:	
  2187                           ; 1 bytes @ 0x6
  2188                           
  2189     0026                     login@j:	
  2190                           ; 1 bytes @ 0x6
  2191                           
  2192     0026                     set_time@i_415:	
  2193                           ; 2 bytes @ 0x6
  2194                           
  2195     0026                     init_i2c@baud:	
  2196                           ; 2 bytes @ 0x6
  2197                           
  2198     0026                     init_uart@baud:	
  2199                           ; 4 bytes @ 0x6
  2200                           
  2201                           
  2202                           ; 4 bytes @ 0x6
  2203     0026                     	ds	1
  2204     0027                     change_pass@key:
  2205                           
  2206                           ; 1 bytes @ 0x7
  2207     0027                     	ds	1
  2208     0028                     login@reset:
  2209     0028                     change_pass@i_468:	
  2210                           ; 1 bytes @ 0x8
  2211                           
  2212                           
  2213                           ; 2 bytes @ 0x8
  2214     0028                     	ds	2
  2215     002A                     ??_init_i2c:
  2216     002A                     ??_init_uart:	
  2217                           ; 1 bytes @ 0xA
  2218                           
  2219     002A                     change_pass@i_470:	
  2220                           ; 1 bytes @ 0xA
  2221                           
  2222                           
  2223                           ; 2 bytes @ 0xA
  2224     002A                     	ds	4
  2225     002E                     display_menu@key:
  2226                           
  2227                           ; 1 bytes @ 0xE
  2228     002E                     	ds	1
  2229     002F                     ??_main:
  2230                           
  2231                           ; 1 bytes @ 0xF
  2232     002F                     	ds	4
  2233     0033                     main@gear:
  2234                           
  2235                           ; 14 bytes @ 0x13
  2236     0033                     	ds	14
  2237     0041                     main@i:
  2238                           
  2239                           ; 2 bytes @ 0x21
  2240     0041                     	ds	2
  2241     0043                     main@store:
  2242                           
  2243                           ; 1 bytes @ 0x23
  2244     0043                     	ds	1
  2245     0044                     main@press_duration:
  2246                           
  2247                           ; 1 bytes @ 0x24
  2248     0044                     	ds	1
  2249     0045                     main@event:
  2250                           
  2251                           ; 3 bytes @ 0x25
  2252     0045                     	ds	3
  2253     0048                     main@key:
  2254                           
  2255                           ; 1 bytes @ 0x28
  2256     0048                     	ds	1
  2257     0049                     main@gr:
  2258                           
  2259                           ; 1 bytes @ 0x29
  2260     0049                     	ds	1
  2261     004A                     main@speed:
  2262                           
  2263                           ; 1 bytes @ 0x2A
  2264     004A                     	ds	1
  2265     004B                     main@reset:
  2266                           
  2267                           ; 1 bytes @ 0x2B
  2268     004B                     	ds	1
  2269     004C                     main@pre_key:
  2270                           
  2271                           ; 1 bytes @ 0x2C
  2272     004C                     	ds	1
  2273                           
  2274                           	psect	maintext
  2275     0040                     __pmaintext:	
  2276 ;;
  2277 ;;Main: autosize = 0, tempsize = 4, incstack = 0, save=0
  2278 ;;
  2279 ;; *************** function _main *****************
  2280 ;; Defined at:
  2281 ;;		line 29 in file "main.c"
  2282 ;; Parameters:    Size  Location     Type
  2283 ;;		None
  2284 ;; Auto vars:     Size  Location     Type
  2285 ;;  i               2   33[BANK0 ] int 
  2286 ;;  gear           14   19[BANK0 ] PTR unsigned char [7]
  2287 ;;		 -> STR_7(3), STR_6(3), STR_5(3), STR_4(3), 
  2288 ;;		 -> STR_3(3), STR_2(3), STR_1(3), 
  2289 ;;  event           3   37[BANK0 ] unsigned char [3]
  2290 ;;  pre_key         1   44[BANK0 ] unsigned char 
  2291 ;;  reset           1   43[BANK0 ] unsigned char 
  2292 ;;  speed           1   42[BANK0 ] unsigned char 
  2293 ;;  gr              1   41[BANK0 ] unsigned char 
  2294 ;;  key             1   40[BANK0 ] unsigned char 
  2295 ;;  press_durati    1   36[BANK0 ] unsigned char 
  2296 ;;  store           1   35[BANK0 ] unsigned char 
  2297 ;; Return value:  Size  Location     Type
  2298 ;;                  1    wreg      void 
  2299 ;; Registers used:
  2300 ;;		wreg, fsr0l, fsr0h, status,2, status,0, btemp+1, pclath, cstack
  2301 ;; Tracked objects:
  2302 ;;		On entry : B00/0
  2303 ;;		On exit  : 0/0
  2304 ;;		Unchanged: 0/0
  2305 ;; Data sizes:     COMMON   BANK0   BANK1   BANK3   BANK2
  2306 ;;      Params:         0       0       0       0       0
  2307 ;;      Locals:         0      26       0       0       0
  2308 ;;      Temps:          0       4       0       0       0
  2309 ;;      Totals:         0      30       0       0       0
  2310 ;;Total ram usage:       30 bytes
  2311 ;; Hardware stack levels required when called: 7
  2312 ;; This function calls:
  2313 ;;		___lwdiv
  2314 ;;		_change_pass
  2315 ;;		_clcd_print
  2316 ;;		_clear_display
  2317 ;;		_clear_log
  2318 ;;		_display_dashboard
  2319 ;;		_display_menu
  2320 ;;		_download_log
  2321 ;;		_eeprom_at24C04_str_write
  2322 ;;		_init
  2323 ;;		_log_event
  2324 ;;		_login
  2325 ;;		_login_screen
  2326 ;;		_read_adc
  2327 ;;		_read_digital_keypad
  2328 ;;		_save_time
  2329 ;;		_set_time
  2330 ;;		_strcpy
  2331 ;;		_view_log
  2332 ;; This function is called by:
  2333 ;;		Startup code after reset
  2334 ;; This function uses a non-reentrant model
  2335 ;;
  2336                           
  2337     0040                     _main:	
  2338                           ;psect for function _main
  2339                           
  2340     0040                     l4447:	
  2341                           ;incstack = 0
  2342                           ; Regs used in _main: [wreg-fsr0h+status,2+status,0+btemp+1+pclath+cstack]
  2343                           
  2344                           
  2345                           ;main.c: 30:             store = key;
  2346     0040  120A  158A  20E7  120A  118A  	fcall	_init
  2347     0045                     l4449:
  2348                           
  2349                           ;main.c: 31:             press_duration++;
  2350     0045  1683               	bsf	3,5	;RP0=1, select bank1
  2351     0046  1303               	bcf	3,6	;RP1=0, select bank1
  2352     0047  0869               	movf	main@F1253^(0+128),w
  2353     0048  1283               	bcf	3,5	;RP0=0, select bank0
  2354     0049  1303               	bcf	3,6	;RP1=0, select bank0
  2355     004A  00C5               	movwf	main@event
  2356     004B  1683               	bsf	3,5	;RP0=1, select bank1
  2357     004C  1303               	bcf	3,6	;RP1=0, select bank1
  2358     004D  086A               	movf	(main@F1253+1)^(0+128),w
  2359     004E  1283               	bcf	3,5	;RP0=0, select bank0
  2360     004F  1303               	bcf	3,6	;RP1=0, select bank0
  2361     0050  00C6               	movwf	main@event+1
  2362     0051  1683               	bsf	3,5	;RP0=1, select bank1
  2363     0052  1303               	bcf	3,6	;RP1=0, select bank1
  2364     0053  086B               	movf	(main@F1253+2)^(0+128),w
  2365     0054  1283               	bcf	3,5	;RP0=0, select bank0
  2366     0055  1303               	bcf	3,6	;RP1=0, select bank0
  2367     0056  00C7               	movwf	main@event+2
  2368     0057                     l4451:
  2369     0057                     l4453:
  2370     0057  300A               	movlw	10
  2371     0058  00CB               	movwf	main@reset
  2372     0059                     l4455:
  2373     0059                     l4457:
  2374     0059  303F               	movlw	63
  2375     005A  00CC               	movwf	main@pre_key
  2376     005B                     l4459:
  2377     005B  01C4               	clrf	main@press_duration
  2378     005C                     l4461:
  2379                           
  2380                           ;main.c: 34:         {
  2381     005C  01C9               	clrf	main@gr
  2382     005D                     l4463:
  2383                           
  2384                           ;main.c: 35:             pre_key = store;
  2385     005D  3033               	movlw	main@gear& (0+255)
  2386     005E  0084               	movwf	4
  2387     005F  30D1               	movlw	low main@F1262
  2388     0060  00AF               	movwf	??_main
  2389     0061  0804               	movf	4,w
  2390     0062  00B0               	movwf	??_main+1
  2391     0063  300E               	movlw	14
  2392     0064  00B1               	movwf	??_main+2
  2393     0065                     u4000:
  2394     0065  082F               	movf	??_main,w
  2395     0066  0084               	movwf	4
  2396     0067  1383               	bcf	3,7	;select IRP bank1
  2397     0068  0800               	movf	0,w
  2398     0069  00B2               	movwf	??_main+3
  2399     006A  0AAF               	incf	??_main,f
  2400     006B  0830               	movf	??_main+1,w
  2401     006C  0084               	movwf	4
  2402     006D  0832               	movf	??_main+3,w
  2403     006E  0080               	movwf	0
  2404     006F  0AB0               	incf	??_main+1,f
  2405     0070  0BB1               	decfsz	??_main+2,f
  2406     0071  2865               	goto	u4000
  2407     0072                     l4465:
  2408                           
  2409                           ;main.c: 36:             store = 0x3F;
  2410     0072  01A0               	clrf	log_event@speed
  2411     0073  3045               	movlw	(low (main@event| 0))& (0+255)
  2412     0074  120A  158A  227C  120A  118A  	fcall	_log_event
  2413     0079                     l4467:
  2414                           
  2415                           ;main.c: 37:         }
  2416     0079  304C               	movlw	low (STR_8| (0+32768))
  2417     007A  00F5               	movwf	eeprom_at24C04_str_write@str
  2418     007B  3085               	movlw	high (STR_8| (0+32768))
  2419     007C  00F6               	movwf	eeprom_at24C04_str_write@str+1
  2420     007D  3000               	movlw	0
  2421     007E  160A  118A  27D1  120A  118A  	fcall	_eeprom_at24C04_str_write
  2422     0083                     l4469:
  2423                           
  2424                           ;main.c: 38:         for(int i =0;++i<3000;);
  2425     0083  1283               	bcf	3,5	;RP0=0, select bank0
  2426     0084  1303               	bcf	3,6	;RP1=0, select bank0
  2427     0085  1112               	bcf	18,2	;volatile
  2428     0086                     l4471:
  2429                           
  2430                           ;main.c: 40:             speed = 99;;main.c: 41:         if(key == 0x3F)
  2431     0086  300A               	movlw	10
  2432     0087  00F6               	movwf	___lwdiv@divisor
  2433     0088  3000               	movlw	0
  2434     0089  00F7               	movwf	___lwdiv@divisor+1
  2435     008A  160A  118A  25B7  120A  118A  	fcall	_read_adc
  2436     008F  0873               	movf	?_read_adc+1,w
  2437     0090  00F9               	movwf	___lwdiv@dividend+1
  2438     0091  0872               	movf	?_read_adc,w
  2439     0092  00F8               	movwf	___lwdiv@dividend
  2440     0093  120A  158A  2197  120A  118A  	fcall	___lwdiv
  2441     0098  0876               	movf	?___lwdiv,w
  2442     0099  1283               	bcf	3,5	;RP0=0, select bank0
  2443     009A  1303               	bcf	3,6	;RP1=0, select bank0
  2444     009B  00CA               	movwf	main@speed
  2445     009C                     l4473:
  2446                           
  2447                           ;main.c: 42:         {
  2448     009C  3000               	movlw	0
  2449     009D  160A  118A  26F6  120A  118A  	fcall	_read_digital_keypad
  2450     00A2  1283               	bcf	3,5	;RP0=0, select bank0
  2451     00A3  1303               	bcf	3,6	;RP1=0, select bank0
  2452     00A4  00C8               	movwf	main@key
  2453     00A5                     l4475:
  2454                           
  2455                           ;main.c: 43:         if(pre_key == 0x3E)
  2456     00A5  303F               	movlw	63
  2457     00A6  0648               	xorwf	main@key,w
  2458     00A7  1903               	btfsc	3,2
  2459     00A8  28AA               	goto	u4011
  2460     00A9  28AB               	goto	u4010
  2461     00AA                     u4011:
  2462     00AA  28B2               	goto	l4481
  2463     00AB                     u4010:
  2464     00AB                     l4477:
  2465                           
  2466                           ;main.c: 44:         {;main.c: 45:             gr=0;
  2467     00AB  0848               	movf	main@key,w
  2468     00AC  00C3               	movwf	main@store
  2469     00AD                     l4479:
  2470                           
  2471                           ;main.c: 46:             strcpy(event,gear[gr]);
  2472     00AD  3001               	movlw	1
  2473     00AE  00FF               	movwf	btemp+1
  2474     00AF  087F               	movf	btemp+1,w
  2475     00B0  07C4               	addwf	main@press_duration,f
  2476                           
  2477                           ;main.c: 47:             log_event(event,speed);
  2478     00B1  28B6               	goto	l4483
  2479     00B2                     l4481:
  2480                           
  2481                           ;main.c: 49:         else if(pre_key == 0x3D && gr<6);main.c: 50:         {
  2482     00B2  0843               	movf	main@store,w
  2483     00B3  00CC               	movwf	main@pre_key
  2484                           
  2485                           ;main.c: 51:             strcpy(event,gear[++gr]);
  2486     00B4  303F               	movlw	63
  2487     00B5  00C3               	movwf	main@store
  2488     00B6                     l4483:
  2489                           
  2490                           ;main.c: 53:         }
  2491     00B6  01C1               	clrf	main@i
  2492     00B7  01C2               	clrf	main@i+1
  2493     00B8                     l4485:
  2494     00B8  3001               	movlw	1
  2495     00B9  1283               	bcf	3,5	;RP0=0, select bank0
  2496     00BA  1303               	bcf	3,6	;RP1=0, select bank0
  2497     00BB  07C1               	addwf	main@i,f
  2498     00BC  1803               	skipnc
  2499     00BD  0AC2               	incf	main@i+1,f
  2500     00BE  3000               	movlw	0
  2501     00BF  07C2               	addwf	main@i+1,f
  2502     00C0  0842               	movf	main@i+1,w
  2503     00C1  3A80               	xorlw	128
  2504     00C2  00FF               	movwf	btemp+1
  2505     00C3  308B               	movlw	139
  2506     00C4  027F               	subwf	btemp+1,w
  2507     00C5  1D03               	skipz
  2508     00C6  28C9               	goto	u4025
  2509     00C7  30B8               	movlw	184
  2510     00C8  0241               	subwf	main@i,w
  2511     00C9                     u4025:
  2512     00C9  1C03               	skipc
  2513     00CA  28CC               	goto	u4021
  2514     00CB  28CD               	goto	u4020
  2515     00CC                     u4021:
  2516     00CC  28B8               	goto	l4485
  2517     00CD                     u4020:
  2518     00CD                     l4487:
  2519                           
  2520                           ;main.c: 54:         else if(pre_key == 0x3B && gr>1)
  2521     00CD  3064               	movlw	100
  2522     00CE  1283               	bcf	3,5	;RP0=0, select bank0
  2523     00CF  1303               	bcf	3,6	;RP1=0, select bank0
  2524     00D0  024A               	subwf	main@speed,w
  2525     00D1  1C03               	skipc
  2526     00D2  28D4               	goto	u4031
  2527     00D3  28D5               	goto	u4030
  2528     00D4                     u4031:
  2529     00D4  28D7               	goto	l4491
  2530     00D5                     u4030:
  2531     00D5                     l4489:
  2532                           
  2533                           ;main.c: 55:         {
  2534     00D5  3063               	movlw	99
  2535     00D6  00CA               	movwf	main@speed
  2536     00D7                     l4491:
  2537                           
  2538                           ;main.c: 56:             strcpy(event,gear[--gr]);
  2539     00D7  303F               	movlw	63
  2540     00D8  0648               	xorwf	main@key,w
  2541     00D9  1D03               	btfss	3,2
  2542     00DA  28DC               	goto	u4041
  2543     00DB  28DD               	goto	u4040
  2544     00DC                     u4041:
  2545     00DC  2AE8               	goto	l4647
  2546     00DD                     u4040:
  2547     00DD                     l4493:
  2548                           
  2549                           ;main.c: 57:             log_event(event,speed);;main.c: 58:         }
  2550     00DD  303E               	movlw	62
  2551     00DE  064C               	xorwf	main@pre_key,w
  2552     00DF  1D03               	btfss	3,2
  2553     00E0  28E2               	goto	u4051
  2554     00E1  28E3               	goto	u4050
  2555     00E2                     u4051:
  2556     00E2  28F9               	goto	l4501
  2557     00E3                     u4050:
  2558     00E3                     l4495:
  2559                           
  2560                           ;main.c: 59:         else if((pre_key == 0x37 || pre_key == 0x2F) && control_flag == 0x0
      +                          1 );main.c: 60:         {
  2561     00E3  01C9               	clrf	main@gr
  2562     00E4                     l4497:
  2563                           
  2564                           ;main.c: 61:             TMR2ON = 1;
  2565     00E4  0833               	movf	main@gear,w
  2566     00E5  00F2               	movwf	strcpy@src
  2567     00E6  0834               	movf	main@gear+1,w
  2568     00E7  00F3               	movwf	strcpy@src+1
  2569     00E8  3045               	movlw	(low (main@event| 0))& (0+255)
  2570     00E9  160A  118A  26AD  120A  118A  	fcall	_strcpy
  2571     00EE                     l4499:
  2572                           
  2573                           ;main.c: 62:             control_flag = 0x02;
  2574     00EE  1283               	bcf	3,5	;RP0=0, select bank0
  2575     00EF  1303               	bcf	3,6	;RP1=0, select bank0
  2576     00F0  084A               	movf	main@speed,w
  2577     00F1  00A0               	movwf	log_event@speed
  2578     00F2  3045               	movlw	(low (main@event| 0))& (0+255)
  2579     00F3  120A  158A  227C  120A  118A  	fcall	_log_event
  2580                           
  2581                           ;main.c: 63:             login_screen();
  2582     00F8  2A7F               	goto	l4617
  2583     00F9                     l4501:
  2584     00F9  303D               	movlw	61
  2585     00FA  064C               	xorwf	main@pre_key,w
  2586     00FB  1D03               	btfss	3,2
  2587     00FC  28FE               	goto	u4061
  2588     00FD  28FF               	goto	u4060
  2589     00FE                     u4061:
  2590     00FE  2926               	goto	l4507
  2591     00FF                     u4060:
  2592     00FF                     l4503:
  2593     00FF  3006               	movlw	6
  2594     0100  0249               	subwf	main@gr,w
  2595     0101  1803               	skipnc
  2596     0102  2904               	goto	u4071
  2597     0103  2905               	goto	u4070
  2598     0104                     u4071:
  2599     0104  2926               	goto	l4507
  2600     0105                     u4070:
  2601     0105                     l4505:
  2602                           
  2603                           ;main.c: 65:         };main.c: 66:         else if(pre_key == 0x37 && press_duration > 5
      +                          )
  2604     0105  3001               	movlw	1
  2605     0106  00FF               	movwf	btemp+1
  2606     0107  087F               	movf	btemp+1,w
  2607     0108  07C9               	addwf	main@gr,f
  2608     0109  0849               	movf	main@gr,w
  2609     010A  00AF               	movwf	??_main
  2610     010B  072F               	addwf	??_main,w
  2611     010C  3E33               	addlw	(low (main@gear| 0))& (0+255)
  2612     010D  0084               	movwf	4
  2613     010E  1383               	bcf	3,7	;select IRP bank0
  2614     010F  0800               	movf	0,w
  2615     0110  00F2               	movwf	strcpy@src
  2616     0111  0A84               	incf	4,f
  2617     0112  0800               	movf	0,w
  2618     0113  0384               	decf	4,f
  2619     0114  00F3               	movwf	strcpy@src+1
  2620     0115  3045               	movlw	(low (main@event| 0))& (0+255)
  2621     0116  160A  118A  26AD  120A  118A  	fcall	_strcpy
  2622                           
  2623                           ;main.c: 67:         {
  2624     011B  1283               	bcf	3,5	;RP0=0, select bank0
  2625     011C  1303               	bcf	3,6	;RP1=0, select bank0
  2626     011D  084A               	movf	main@speed,w
  2627     011E  00A0               	movwf	log_event@speed
  2628     011F  3045               	movlw	(low (main@event| 0))& (0+255)
  2629     0120  120A  158A  227C  120A  118A  	fcall	_log_event
  2630                           
  2631                           ;main.c: 68:             if(control_flag == 0x05 )
  2632     0125  2A7F               	goto	l4617
  2633     0126                     l4507:
  2634     0126  303B               	movlw	59
  2635     0127  064C               	xorwf	main@pre_key,w
  2636     0128  1D03               	btfss	3,2
  2637     0129  292B               	goto	u4081
  2638     012A  292C               	goto	u4080
  2639     012B                     u4081:
  2640     012B  2951               	goto	l4513
  2641     012C                     u4080:
  2642     012C                     l4509:
  2643     012C  3002               	movlw	2
  2644     012D  0249               	subwf	main@gr,w
  2645     012E  1C03               	skipc
  2646     012F  2931               	goto	u4091
  2647     0130  2932               	goto	u4090
  2648     0131                     u4091:
  2649     0131  2951               	goto	l4513
  2650     0132                     u4090:
  2651     0132                     l4511:
  2652                           
  2653                           ;main.c: 70:             clear_display();;main.c: 71:             control_flag = 0x03 ;
  2654     0132  3001               	movlw	1
  2655     0133  02C9               	subwf	main@gr,f
  2656     0134  0849               	movf	main@gr,w
  2657     0135  00AF               	movwf	??_main
  2658     0136  072F               	addwf	??_main,w
  2659     0137  3E33               	addlw	(low (main@gear| 0))& (0+255)
  2660     0138  0084               	movwf	4
  2661     0139  1383               	bcf	3,7	;select IRP bank0
  2662     013A  0800               	movf	0,w
  2663     013B  00F2               	movwf	strcpy@src
  2664     013C  0A84               	incf	4,f
  2665     013D  0800               	movf	0,w
  2666     013E  0384               	decf	4,f
  2667     013F  00F3               	movwf	strcpy@src+1
  2668     0140  3045               	movlw	(low (main@event| 0))& (0+255)
  2669     0141  160A  118A  26AD  120A  118A  	fcall	_strcpy
  2670                           
  2671                           ;main.c: 72:             reset = 0x0C;
  2672     0146  1283               	bcf	3,5	;RP0=0, select bank0
  2673     0147  1303               	bcf	3,6	;RP1=0, select bank0
  2674     0148  084A               	movf	main@speed,w
  2675     0149  00A0               	movwf	log_event@speed
  2676     014A  3045               	movlw	(low (main@event| 0))& (0+255)
  2677     014B  120A  158A  227C  120A  118A  	fcall	_log_event
  2678                           
  2679                           ;main.c: 73:             }
  2680     0150  2A7F               	goto	l4617
  2681     0151                     l4513:
  2682     0151  3037               	movlw	55
  2683     0152  064C               	xorwf	main@pre_key,w
  2684     0153  1903               	btfsc	3,2
  2685     0154  2956               	goto	u4101
  2686     0155  2957               	goto	u4100
  2687     0156                     u4101:
  2688     0156  295D               	goto	l4517
  2689     0157                     u4100:
  2690     0157                     l4515:
  2691     0157  302F               	movlw	47
  2692     0158  064C               	xorwf	main@pre_key,w
  2693     0159  1D03               	btfss	3,2
  2694     015A  295C               	goto	u4111
  2695     015B  295D               	goto	u4110
  2696     015C                     u4111:
  2697     015C  296F               	goto	l4527
  2698     015D                     u4110:
  2699     015D                     l4517:
  2700     015D  036D               	decf	_control_flag,w
  2701     015E  1D03               	btfss	3,2
  2702     015F  2961               	goto	u4121
  2703     0160  2962               	goto	u4120
  2704     0161                     u4121:
  2705     0161  296F               	goto	l4527
  2706     0162                     u4120:
  2707     0162                     l4519:
  2708                           
  2709                           ;main.c: 75:             {;main.c: 76:                 clear_display();
  2710     0162  1512               	bsf	18,2	;volatile
  2711     0163                     l4521:
  2712                           
  2713                           ;main.c: 77:                 control_flag = 0x01;
  2714     0163  3002               	movlw	2
  2715     0164  00ED               	movwf	_control_flag
  2716     0165                     l4523:
  2717                           
  2718                           ;main.c: 78:             }
  2719     0165  160A  118A  2604  120A  118A  	fcall	_login_screen
  2720     016A                     l4525:
  2721                           
  2722                           ;main.c: 79:             else if(control_flag == 0x08)
  2723     016A  300A               	movlw	10
  2724     016B  1283               	bcf	3,5	;RP0=0, select bank0
  2725     016C  1303               	bcf	3,6	;RP1=0, select bank0
  2726     016D  00CB               	movwf	main@reset
  2727                           
  2728                           ;main.c: 80:             {
  2729     016E  2A7F               	goto	l4617
  2730     016F                     l4527:
  2731     016F  3037               	movlw	55
  2732     0170  064C               	xorwf	main@pre_key,w
  2733     0171  1D03               	btfss	3,2
  2734     0172  2974               	goto	u4131
  2735     0173  2975               	goto	u4130
  2736     0174                     u4131:
  2737     0174  29AE               	goto	l4551
  2738     0175                     u4130:
  2739     0175                     l4529:
  2740     0175  3006               	movlw	6
  2741     0176  0244               	subwf	main@press_duration,w
  2742     0177  1C03               	skipc
  2743     0178  297A               	goto	u4141
  2744     0179  297B               	goto	u4140
  2745     017A                     u4141:
  2746     017A  29AE               	goto	l4551
  2747     017B                     u4140:
  2748     017B                     l4531:
  2749                           
  2750                           ;main.c: 82:                 clear_display();;main.c: 83:                 control_flag =
      +                           0x01;
  2751     017B  3005               	movlw	5
  2752     017C  066D               	xorwf	_control_flag,w
  2753     017D  1D03               	btfss	3,2
  2754     017E  2980               	goto	u4151
  2755     017F  2981               	goto	u4150
  2756     0180                     u4151:
  2757     0180  298D               	goto	l4539
  2758     0181                     u4150:
  2759     0181                     l4533:
  2760                           
  2761                           ;main.c: 84:             };main.c: 85:         }
  2762     0181  160A  118A  25A6  120A  118A  	fcall	_clear_display
  2763     0186                     l4535:
  2764                           
  2765                           ;main.c: 86:         else if(pre_key == 0x2F && control_flag == 0x03 && press_duration >
      +                           5)
  2766     0186  3003               	movlw	3
  2767     0187  1283               	bcf	3,5	;RP0=0, select bank0
  2768     0188  1303               	bcf	3,6	;RP1=0, select bank0
  2769     0189  00ED               	movwf	_control_flag
  2770     018A                     l4537:
  2771                           
  2772                           ;main.c: 87:         {
  2773     018A  300C               	movlw	12
  2774     018B  00CB               	movwf	main@reset
  2775                           
  2776                           ;main.c: 88:             switch(menu_pos)
  2777     018C  2A7F               	goto	l4617
  2778     018D                     l4539:
  2779     018D  3003               	movlw	3
  2780     018E  066D               	xorwf	_control_flag,w
  2781     018F  1D03               	btfss	3,2
  2782     0190  2992               	goto	u4161
  2783     0191  2993               	goto	u4160
  2784     0192                     u4161:
  2785     0192  299D               	goto	l4545
  2786     0193                     u4160:
  2787     0193                     l4541:
  2788                           
  2789                           ;main.c: 90:                 case 0:;main.c: 91:                     clear_display();
  2790     0193  160A  118A  25A6  120A  118A  	fcall	_clear_display
  2791     0198                     l4543:
  2792                           
  2793                           ;main.c: 92:                     control_flag = 0x05;
  2794     0198  1283               	bcf	3,5	;RP0=0, select bank0
  2795     0199  1303               	bcf	3,6	;RP1=0, select bank0
  2796     019A  01ED               	clrf	_control_flag
  2797     019B  0AED               	incf	_control_flag,f
  2798                           
  2799                           ;main.c: 93:                     reset = 0x0D;
  2800     019C  2A7F               	goto	l4617
  2801     019D                     l4545:
  2802     019D  3008               	movlw	8
  2803     019E  066D               	xorwf	_control_flag,w
  2804     019F  1D03               	btfss	3,2
  2805     01A0  29A2               	goto	u4171
  2806     01A1  29A3               	goto	u4170
  2807     01A2                     u4171:
  2808     01A2  2A7F               	goto	l96
  2809     01A3                     u4170:
  2810     01A3                     l4547:
  2811                           
  2812                           ;main.c: 95:                     break;;main.c: 96:                 case 1:
  2813     01A3  120A  158A  21DD  120A  118A  	fcall	_save_time
  2814                           
  2815                           ;main.c: 97:                     clear_display();
  2816     01A8  160A  118A  25A6  120A  118A  	fcall	_clear_display
  2817     01AD  2998               	goto	l4543
  2818     01AE                     l4551:
  2819     01AE  302F               	movlw	47
  2820     01AF  064C               	xorwf	main@pre_key,w
  2821     01B0  1D03               	btfss	3,2
  2822     01B1  29B3               	goto	u4181
  2823     01B2  29B4               	goto	u4180
  2824     01B3                     u4181:
  2825     01B3  2A61               	goto	l4603
  2826     01B4                     u4180:
  2827     01B4                     l4553:
  2828     01B4  3003               	movlw	3
  2829     01B5  066D               	xorwf	_control_flag,w
  2830     01B6  1D03               	btfss	3,2
  2831     01B7  29B9               	goto	u4191
  2832     01B8  29BA               	goto	u4190
  2833     01B9                     u4191:
  2834     01B9  2A61               	goto	l4603
  2835     01BA                     u4190:
  2836     01BA                     l4555:
  2837     01BA  3006               	movlw	6
  2838     01BB  0244               	subwf	main@press_duration,w
  2839     01BC  1C03               	skipc
  2840     01BD  29BF               	goto	u4201
  2841     01BE  29C0               	goto	u4200
  2842     01BF                     u4201:
  2843     01BF  2A61               	goto	l4603
  2844     01C0                     u4200:
  2845     01C0  2A48               	goto	l4601
  2846     01C1                     l4559:
  2847                           
  2848                           ;main.c: 106:                     _delay((unsigned long)((1500)*(20000000/4000.0)));
  2849     01C1  160A  118A  25A6  120A  118A  	fcall	_clear_display
  2850     01C6                     l4561:
  2851                           
  2852                           ;main.c: 107:                     break;
  2853     01C6  3005               	movlw	5
  2854     01C7  1283               	bcf	3,5	;RP0=0, select bank0
  2855     01C8  1303               	bcf	3,6	;RP1=0, select bank0
  2856     01C9  00ED               	movwf	_control_flag
  2857     01CA                     l4563:
  2858                           
  2859                           ;main.c: 108:                 case 3 :
  2860     01CA  300D               	movlw	13
  2861     01CB  00CB               	movwf	main@reset
  2862     01CC                     l4565:
  2863                           
  2864                           ;main.c: 109:                     control_flag = 0x07;
  2865     01CC  3066               	movlw	low (STR_9| (0+32768))
  2866     01CD  00F6               	movwf	clcd_print@str
  2867     01CE  3084               	movlw	high (STR_9| (0+32768))
  2868     01CF  00F7               	movwf	clcd_print@str+1
  2869     01D0  3080               	movlw	128
  2870     01D1  00F8               	movwf	clcd_print@addr
  2871     01D2  160A  118A  27A2  120A  118A  	fcall	_clcd_print
  2872                           
  2873                           ;main.c: 110:                     clear_display();
  2874     01D7  2A7F               	goto	l4617
  2875     01D8                     l4567:
  2876                           
  2877                           ;main.c: 112:                     reset = 0x0E;
  2878     01D8  160A  118A  25A6  120A  118A  	fcall	_clear_display
  2879     01DD                     l4569:
  2880                           
  2881                           ;main.c: 113:                     break;
  2882     01DD  3009               	movlw	9
  2883     01DE  1283               	bcf	3,5	;RP0=0, select bank0
  2884     01DF  1303               	bcf	3,6	;RP1=0, select bank0
  2885     01E0  00ED               	movwf	_control_flag
  2886     01E1                     l4571:
  2887                           
  2888                           ;main.c: 114:                 case 4:
  2889     01E1  3033               	movlw	low (STR_10| (0+32768))
  2890     01E2  00F6               	movwf	clcd_print@str
  2891     01E3  3084               	movlw	high (STR_10| (0+32768))
  2892     01E4  00F7               	movwf	clcd_print@str+1
  2893     01E5  3080               	movlw	128
  2894     01E6  00F8               	movwf	clcd_print@addr
  2895     01E7  160A  118A  27A2  120A  118A  	fcall	_clcd_print
  2896     01EC                     l4573:
  2897                           
  2898                           ;main.c: 115:                     control_flag = 0x08;
  2899     01EC  3044               	movlw	low (STR_11| (0+32768))
  2900     01ED  00F6               	movwf	clcd_print@str
  2901     01EE  3084               	movlw	high (STR_11| (0+32768))
  2902     01EF  00F7               	movwf	clcd_print@str+1
  2903     01F0  30C0               	movlw	192
  2904     01F1  00F8               	movwf	clcd_print@addr
  2905     01F2  160A  118A  27A2  120A  118A  	fcall	_clcd_print
  2906                           
  2907                           ;main.c: 116:                     clear_display();
  2908     01F7  2A7F               	goto	l4617
  2909     01F8                     l4575:
  2910                           
  2911                           ;main.c: 118:                     reset = 0x0F;
  2912     01F8  3006               	movlw	6
  2913     01F9  00ED               	movwf	_control_flag
  2914     01FA                     l4577:
  2915                           
  2916                           ;main.c: 119:                     break;
  2917     01FA  160A  118A  25A6  120A  118A  	fcall	_clear_display
  2918     01FF                     l4579:
  2919                           
  2920                           ;main.c: 120:             }
  2921     01FF  3022               	movlw	low (STR_12| (0+32768))
  2922     0200  00F6               	movwf	clcd_print@str
  2923     0201  3084               	movlw	high (STR_12| (0+32768))
  2924     0202  00F7               	movwf	clcd_print@str+1
  2925     0203  3080               	movlw	128
  2926     0204  00F8               	movwf	clcd_print@addr
  2927     0205  160A  118A  27A2  120A  118A  	fcall	_clcd_print
  2928     020A                     l4581:
  2929                           
  2930                           ;main.c: 121:         }
  2931     020A  3027               	movlw	39
  2932     020B  1283               	bcf	3,5	;RP0=0, select bank0
  2933     020C  1303               	bcf	3,6	;RP1=0, select bank0
  2934     020D  00B1               	movwf	??_main+2
  2935     020E  300D               	movlw	13
  2936     020F  00B0               	movwf	??_main+1
  2937     0210  3025               	movlw	37
  2938     0211  00AF               	movwf	??_main
  2939     0212                     u4257:
  2940     0212  0BAF               	decfsz	??_main,f
  2941     0213  2A12               	goto	u4257
  2942     0214  0BB0               	decfsz	??_main+1,f
  2943     0215  2A12               	goto	u4257
  2944     0216  0BB1               	decfsz	??_main+2,f
  2945     0217  2A12               	goto	u4257
  2946     0218  2A19               	nop2
  2947                           
  2948                           ;main.c: 122:         else if((pre_key == 0x2F || pre_key == 0x37) && control_flag == 0x
      +                          09)
  2949     0219  2A7F               	goto	l4617
  2950     021A                     l4583:
  2951                           
  2952                           ;main.c: 124:             if(pre_key == 0x2F)
  2953     021A  3007               	movlw	7
  2954     021B  00ED               	movwf	_control_flag
  2955     021C                     l4585:
  2956                           
  2957                           ;main.c: 125:             clear_log();
  2958     021C  160A  118A  25A6  120A  118A  	fcall	_clear_display
  2959     0221                     l4587:
  2960                           
  2961                           ;main.c: 126:             control_flag = 0x03;
  2962     0221  3055               	movlw	low (STR_13| (0+32768))
  2963     0222  00F6               	movwf	clcd_print@str
  2964     0223  3084               	movlw	high (STR_13| (0+32768))
  2965     0224  00F7               	movwf	clcd_print@str+1
  2966     0225  3080               	movlw	128
  2967     0226  00F8               	movwf	clcd_print@addr
  2968     0227  160A  118A  27A2  120A  118A  	fcall	_clcd_print
  2969     022C                     l4589:
  2970                           
  2971                           ;main.c: 127:             reset = 0x0C;
  2972     022C  300E               	movlw	14
  2973     022D  1283               	bcf	3,5	;RP0=0, select bank0
  2974     022E  1303               	bcf	3,6	;RP1=0, select bank0
  2975     022F  00CB               	movwf	main@reset
  2976                           
  2977                           ;main.c: 128:         }
  2978     0230  2A7F               	goto	l4617
  2979     0231                     l4591:
  2980                           
  2981                           ;main.c: 130:         }
  2982     0231  3008               	movlw	8
  2983     0232  00ED               	movwf	_control_flag
  2984     0233                     l4593:
  2985                           
  2986                           ;main.c: 131:         switch(control_flag)
  2987     0233  160A  118A  25A6  120A  118A  	fcall	_clear_display
  2988     0238                     l4595:
  2989                           
  2990                           ;main.c: 132:         {
  2991     0238  30B6               	movlw	low (STR_14| (0+32768))
  2992     0239  00F6               	movwf	clcd_print@str
  2993     023A  3084               	movlw	high (STR_14| (0+32768))
  2994     023B  00F7               	movwf	clcd_print@str+1
  2995     023C  3080               	movlw	128
  2996     023D  00F8               	movwf	clcd_print@addr
  2997     023E  160A  118A  27A2  120A  118A  	fcall	_clcd_print
  2998     0243                     l4597:
  2999                           
  3000                           ;main.c: 133:             case 0x01 :
  3001     0243  300F               	movlw	15
  3002     0244  1283               	bcf	3,5	;RP0=0, select bank0
  3003     0245  1303               	bcf	3,6	;RP1=0, select bank0
  3004     0246  00CB               	movwf	main@reset
  3005                           
  3006                           ;main.c: 134:                 display_dashboard(event,speed);
  3007     0247  2A7F               	goto	l4617
  3008     0248                     l4601:
  3009     0248  085D               	movf	_menu_pos,w
  3010     0249  00AF               	movwf	??_main
  3011     024A  01B0               	clrf	??_main+1
  3012                           
  3013                           ; Switch on 2 bytes has been partitioned into a top level switch of size 1, and 1 sub-sw
      +                          itches
  3014                           ; Switch size 1, requested type "simple"
  3015                           ; Number of cases is 1, Range of values is 0 to 0
  3016                           ; switch strategies available:
  3017                           ; Name         Instructions Cycles
  3018                           ; simple_byte            4     3 (average)
  3019                           ; direct_byte           11     8 (fixed)
  3020                           ; jumptable            260     6 (fixed)
  3021                           ;	Chosen strategy is simple_byte
  3022     024B  0830               	movf	??_main+1,w
  3023     024C  3A00               	xorlw	0	; case 0
  3024     024D  1903               	skipnz
  3025     024E  2A50               	goto	l4741
  3026     024F  2A7F               	goto	l96
  3027     0250                     l4741:
  3028                           
  3029                           ; Switch size 1, requested type "simple"
  3030                           ; Number of cases is 5, Range of values is 0 to 4
  3031                           ; switch strategies available:
  3032                           ; Name         Instructions Cycles
  3033                           ; simple_byte           16     9 (average)
  3034                           ; direct_byte           23     8 (fixed)
  3035                           ; jumptable            260     6 (fixed)
  3036                           ;	Chosen strategy is simple_byte
  3037     0250  082F               	movf	??_main,w
  3038     0251  3A00               	xorlw	0	; case 0
  3039     0252  1903               	skipnz
  3040     0253  29C1               	goto	l4559
  3041     0254  3A01               	xorlw	1	; case 1
  3042     0255  1903               	skipnz
  3043     0256  29D8               	goto	l4567
  3044     0257  3A03               	xorlw	3	; case 2
  3045     0258  1903               	skipnz
  3046     0259  29F8               	goto	l4575
  3047     025A  3A01               	xorlw	1	; case 3
  3048     025B  1903               	skipnz
  3049     025C  2A1A               	goto	l4583
  3050     025D  3A07               	xorlw	7	; case 4
  3051     025E  1903               	skipnz
  3052     025F  2A31               	goto	l4591
  3053     0260  2A7F               	goto	l96
  3054     0261                     l4603:
  3055     0261  302F               	movlw	47
  3056     0262  064C               	xorwf	main@pre_key,w
  3057     0263  1903               	btfsc	3,2
  3058     0264  2A66               	goto	u4211
  3059     0265  2A67               	goto	u4210
  3060     0266                     u4211:
  3061     0266  2A6D               	goto	l4607
  3062     0267                     u4210:
  3063     0267                     l4605:
  3064     0267  3037               	movlw	55
  3065     0268  064C               	xorwf	main@pre_key,w
  3066     0269  1D03               	btfss	3,2
  3067     026A  2A6C               	goto	u4221
  3068     026B  2A6D               	goto	u4220
  3069     026C                     u4221:
  3070     026C  2A7F               	goto	l96
  3071     026D                     u4220:
  3072     026D                     l4607:
  3073     026D  3009               	movlw	9
  3074     026E  066D               	xorwf	_control_flag,w
  3075     026F  1D03               	btfss	3,2
  3076     0270  2A72               	goto	u4231
  3077     0271  2A73               	goto	u4230
  3078     0272                     u4231:
  3079     0272  2A7F               	goto	l96
  3080     0273                     u4230:
  3081     0273                     l4609:
  3082                           
  3083                           ;main.c: 138:                 {;main.c: 139:                     case 0x11 :
  3084     0273  302F               	movlw	47
  3085     0274  064C               	xorwf	main@pre_key,w
  3086     0275  1D03               	btfss	3,2
  3087     0276  2A78               	goto	u4241
  3088     0277  2A79               	goto	u4240
  3089     0278                     u4241:
  3090     0278  2986               	goto	l4535
  3091     0279                     u4240:
  3092     0279                     l4611:
  3093                           
  3094                           ;main.c: 140:                         control_flag = 0x03;
  3095     0279  160A  118A  2776  120A  118A  	fcall	_clear_log
  3096     027E  2986               	goto	l4535
  3097     027F                     l96:
  3098     027F                     l4617:
  3099                           
  3100                           ;main.c: 144:                     case 0x00 :
  3101     027F  1283               	bcf	3,5	;RP0=0, select bank0
  3102     0280  1303               	bcf	3,6	;RP1=0, select bank0
  3103     0281  01C4               	clrf	main@press_duration
  3104     0282  2AE8               	goto	l4647
  3105     0283                     l4619:
  3106                           
  3107                           ;main.c: 149:                 break;
  3108     0283  084A               	movf	main@speed,w
  3109     0284  00A2               	movwf	display_dashboard@speed
  3110     0285  3045               	movlw	(low (main@event| 0))& (0+255)
  3111     0286  120A  158A  22D8  120A  118A  	fcall	_display_dashboard
  3112                           
  3113                           ;main.c: 150:             case 0x03:
  3114     028B  2886               	goto	l4471
  3115     028C                     l4621:
  3116                           
  3117                           ;main.c: 155:                 break;
  3118     028C  3003               	movlw	3
  3119     028D  00ED               	movwf	_control_flag
  3120     028E                     l4623:
  3121                           
  3122                           ;main.c: 156:             case 0x06 :
  3123     028E  1112               	bcf	18,2	;volatile
  3124                           
  3125                           ;main.c: 157:                 download_log();
  3126     028F  300C               	movlw	12
  3127     0290  00CB               	movwf	main@reset
  3128                           
  3129                           ;main.c: 158:                 clear_display();
  3130     0291  2886               	goto	l4471
  3131     0292                     l117:	
  3132                           ;main.c: 159:                 control_flag = 0x03;
  3133                           
  3134                           
  3135                           ;main.c: 160:                 reset = 0x0C;
  3136     0292  01ED               	clrf	_control_flag
  3137     0293  0AED               	incf	_control_flag,f
  3138                           
  3139                           ;main.c: 161:                 break;
  3140     0294  1112               	bcf	18,2	;volatile
  3141                           
  3142                           ;main.c: 162:             case 0x07 :
  3143     0295  2886               	goto	l4471
  3144     0296                     l4627:
  3145     0296  084C               	movf	main@pre_key,w
  3146     0297  00A2               	movwf	login@key
  3147     0298  304B               	movlw	(low (main@reset| 0))& (0+255)
  3148     0299  120A  118A  256D  120A  118A  	fcall	_login
  3149     029E  1283               	bcf	3,5	;RP0=0, select bank0
  3150     029F  1303               	bcf	3,6	;RP1=0, select bank0
  3151     02A0  00AF               	movwf	??_main
  3152     02A1  01B0               	clrf	??_main+1
  3153                           
  3154                           ; Switch on 2 bytes has been partitioned into a top level switch of size 1, and 1 sub-sw
      +                          itches
  3155                           ; Switch size 1, requested type "simple"
  3156                           ; Number of cases is 1, Range of values is 0 to 0
  3157                           ; switch strategies available:
  3158                           ; Name         Instructions Cycles
  3159                           ; simple_byte            4     3 (average)
  3160                           ; direct_byte           11     8 (fixed)
  3161                           ; jumptable            260     6 (fixed)
  3162                           ;	Chosen strategy is simple_byte
  3163     02A2  0830               	movf	??_main+1,w
  3164     02A3  3A00               	xorlw	0	; case 0
  3165     02A4  1903               	skipnz
  3166     02A5  2AA7               	goto	l4743
  3167     02A6  2886               	goto	l4471
  3168     02A7                     l4743:
  3169                           
  3170                           ; Switch size 1, requested type "simple"
  3171                           ; Number of cases is 2, Range of values is 0 to 17
  3172                           ; switch strategies available:
  3173                           ; Name         Instructions Cycles
  3174                           ; simple_byte            7     4 (average)
  3175                           ; direct_byte           62     8 (fixed)
  3176                           ; jumptable            260     6 (fixed)
  3177                           ;	Chosen strategy is simple_byte
  3178     02A7  082F               	movf	??_main,w
  3179     02A8  3A00               	xorlw	0	; case 0
  3180     02A9  1903               	skipnz
  3181     02AA  2A92               	goto	l117
  3182     02AB  3A11               	xorlw	17	; case 17
  3183     02AC  1903               	skipnz
  3184     02AD  2A8C               	goto	l4621
  3185     02AE  2886               	goto	l4471
  3186     02AF                     l4629:
  3187                           
  3188                           ;main.c: 166:                 set_time(pre_key , &reset);
  3189     02AF  304B               	movlw	(low (main@reset| 0))& (0+255)
  3190     02B0  00F9               	movwf	display_menu@reset
  3191     02B1  084C               	movf	main@pre_key,w
  3192     02B2  120A  118A  26D8  120A  118A  	fcall	_display_menu
  3193                           
  3194                           ;main.c: 167:                 break;
  3195     02B7  2886               	goto	l4471
  3196     02B8                     l4631:
  3197                           
  3198                           ;main.c: 169:     }
  3199     02B8  304B               	movlw	(low (main@reset| 0))& (0+255)
  3200     02B9  00A0               	movwf	view_log@reset
  3201     02BA  3000               	movlw	0
  3202     02BB  00A1               	movwf	view_log@reset+1
  3203     02BC  084C               	movf	main@pre_key,w
  3204     02BD  120A  118A  230A  120A  118A  	fcall	_view_log
  3205                           
  3206                           ;main.c: 170:     return;
  3207     02C2  2886               	goto	l4471
  3208     02C3                     l4633:
  3209     02C3  120A  118A  2392  120A  118A  	fcall	_download_log
  3210     02C8                     l4635:
  3211     02C8  160A  118A  25A6  120A  118A  	fcall	_clear_display
  3212     02CD                     l4637:
  3213     02CD  3003               	movlw	3
  3214     02CE  1283               	bcf	3,5	;RP0=0, select bank0
  3215     02CF  1303               	bcf	3,6	;RP1=0, select bank0
  3216     02D0  00ED               	movwf	_control_flag
  3217     02D1                     l4639:
  3218     02D1  300C               	movlw	12
  3219     02D2  00CB               	movwf	main@reset
  3220     02D3  2886               	goto	l4471
  3221     02D4                     l4641:
  3222     02D4  304B               	movlw	(low (main@reset| 0))& (0+255)
  3223     02D5  00A2               	movwf	change_pass@reset
  3224     02D6  3000               	movlw	0
  3225     02D7  00A3               	movwf	change_pass@reset+1
  3226     02D8  084C               	movf	main@pre_key,w
  3227     02D9  120A  158A  26A3  120A  118A  	fcall	_change_pass
  3228     02DE  2886               	goto	l4471
  3229     02DF                     l4643:
  3230     02DF  304B               	movlw	(low (main@reset| 0))& (0+255)
  3231     02E0  00A2               	movwf	set_time@reset
  3232     02E1  084C               	movf	main@pre_key,w
  3233     02E2  120A  158A  2552  120A  118A  	fcall	_set_time
  3234     02E7  2886               	goto	l4471
  3235     02E8                     l4647:
  3236     02E8  086D               	movf	_control_flag,w
  3237     02E9  00AF               	movwf	??_main
  3238     02EA  01B0               	clrf	??_main+1
  3239                           
  3240                           ; Switch on 2 bytes has been partitioned into a top level switch of size 1, and 1 sub-sw
      +                          itches
  3241                           ; Switch size 1, requested type "simple"
  3242                           ; Number of cases is 1, Range of values is 0 to 0
  3243                           ; switch strategies available:
  3244                           ; Name         Instructions Cycles
  3245                           ; simple_byte            4     3 (average)
  3246                           ; direct_byte           11     8 (fixed)
  3247                           ; jumptable            260     6 (fixed)
  3248                           ;	Chosen strategy is simple_byte
  3249     02EB  0830               	movf	??_main+1,w
  3250     02EC  3A00               	xorlw	0	; case 0
  3251     02ED  1903               	skipnz
  3252     02EE  2AF0               	goto	l4745
  3253     02EF  2886               	goto	l4471
  3254     02F0                     l4745:
  3255                           
  3256                           ; Switch size 1, requested type "simple"
  3257                           ; Number of cases is 7, Range of values is 1 to 8
  3258                           ; switch strategies available:
  3259                           ; Name         Instructions Cycles
  3260                           ; simple_byte           22    12 (average)
  3261                           ; direct_byte           35    11 (fixed)
  3262                           ; jumptable            263     9 (fixed)
  3263                           ;	Chosen strategy is simple_byte
  3264     02F0  082F               	movf	??_main,w
  3265     02F1  3A01               	xorlw	1	; case 1
  3266     02F2  1903               	skipnz
  3267     02F3  2A83               	goto	l4619
  3268     02F4  3A03               	xorlw	3	; case 2
  3269     02F5  1903               	skipnz
  3270     02F6  2A96               	goto	l4627
  3271     02F7  3A01               	xorlw	1	; case 3
  3272     02F8  1903               	skipnz
  3273     02F9  2AAF               	goto	l4629
  3274     02FA  3A06               	xorlw	6	; case 5
  3275     02FB  1903               	skipnz
  3276     02FC  2AB8               	goto	l4631
  3277     02FD  3A03               	xorlw	3	; case 6
  3278     02FE  1903               	skipnz
  3279     02FF  2AC3               	goto	l4633
  3280     0300  3A01               	xorlw	1	; case 7
  3281     0301  1903               	skipnz
  3282     0302  2AD4               	goto	l4641
  3283     0303  3A0F               	xorlw	15	; case 8
  3284     0304  1903               	skipnz
  3285     0305  2ADF               	goto	l4643
  3286     0306  2886               	goto	l4471
  3287     0307  120A  118A  280C   	ljmp	start
  3288     030A                     __end_of_main:
  3289                           
  3290                           	psect	text1
  3291     030A                     __ptext1:	
  3292 ;; *************** function _view_log *****************
  3293 ;; Defined at:
  3294 ;;		line 17 in file "log_op.c"
  3295 ;; Parameters:    Size  Location     Type
  3296 ;;  key             1    wreg     unsigned char 
  3297 ;;  reset           2    0[BANK0 ] PTR unsigned char 
  3298 ;;		 -> RAM(512), main@reset(1), 
  3299 ;; Auto vars:     Size  Location     Type
  3300 ;;  key             1    9[COMMON] unsigned char 
  3301 ;; Return value:  Size  Location     Type
  3302 ;;                  1    wreg      void 
  3303 ;; Registers used:
  3304 ;;		wreg, fsr0l, fsr0h, status,2, status,0, btemp+1, pclath, cstack
  3305 ;; Tracked objects:
  3306 ;;		On entry : 0/0
  3307 ;;		On exit  : 0/0
  3308 ;;		Unchanged: 0/0
  3309 ;; Data sizes:     COMMON   BANK0   BANK1   BANK3   BANK2
  3310 ;;      Params:         0       2       0       0       0
  3311 ;;      Locals:         1       0       0       0       0
  3312 ;;      Temps:          0       3       0       0       0
  3313 ;;      Totals:         1       5       0       0       0
  3314 ;;Total ram usage:        6 bytes
  3315 ;; Hardware stack levels used: 1
  3316 ;; Hardware stack levels required when called: 6
  3317 ;; This function calls:
  3318 ;;		___awmod
  3319 ;;		_clcd_print
  3320 ;;		_clear_display
  3321 ;;		_fetch_data_from_memory
  3322 ;; This function is called by:
  3323 ;;		_main
  3324 ;; This function uses a non-reentrant model
  3325 ;;
  3326                           
  3327     030A                     _view_log:	
  3328                           ;psect for function _view_log
  3329                           
  3330                           
  3331                           ;incstack = 0
  3332                           ; Regs used in _view_log: [wreg-fsr0h+status,2+status,0+btemp+1+pclath+cstack]
  3333                           ;view_log@key stored from wreg
  3334     030A  00F9               	movwf	view_log@key
  3335     030B                     l4215:
  3336                           
  3337                           ;log_op.c: 17: void view_log(unsigned char key ,unsigned char* reset);log_op.c: 18: {;lo
      +                          g_op.c: 19:     static int pos=0;;log_op.c: 20:     if(*reset == 0x0D)
  3338     030B  1283               	bcf	3,5	;RP0=0, select bank0
  3339     030C  1303               	bcf	3,6	;RP1=0, select bank0
  3340     030D  0820               	movf	view_log@reset,w
  3341     030E  0084               	movwf	4
  3342     030F  1783               	bsf	3,7
  3343     0310  1C21               	btfss	view_log@reset+1,0
  3344     0311  1383               	bcf	3,7
  3345     0312  300D               	movlw	13
  3346     0313  0600               	xorwf	0,w
  3347     0314  1D03               	btfss	3,2
  3348     0315  2B17               	goto	u3691
  3349     0316  2B18               	goto	u3690
  3350     0317                     u3691:
  3351     0317  2B23               	goto	l4223
  3352     0318                     u3690:
  3353     0318                     l4217:
  3354                           
  3355                           ;log_op.c: 21:     {;log_op.c: 22:         key = 0x3F;
  3356     0318  303F               	movlw	63
  3357     0319  00F9               	movwf	view_log@key
  3358     031A                     l4219:
  3359                           
  3360                           ;log_op.c: 23:         *reset = 0x0B;
  3361     031A  0820               	movf	view_log@reset,w
  3362     031B  0084               	movwf	4
  3363     031C  1783               	bsf	3,7
  3364     031D  1C21               	btfss	view_log@reset+1,0
  3365     031E  1383               	bcf	3,7
  3366     031F  300B               	movlw	11
  3367     0320  0080               	movwf	0
  3368     0321                     l4221:
  3369                           
  3370                           ;log_op.c: 24:         pos = 0;
  3371     0321  01D0               	clrf	view_log@pos
  3372     0322  01D1               	clrf	view_log@pos+1
  3373     0323                     l4223:
  3374                           
  3375                           ;log_op.c: 26:     if(key == 0x2F && event > 0)
  3376     0323  302F               	movlw	47
  3377     0324  0679               	xorwf	view_log@key,w
  3378     0325  1D03               	btfss	3,2
  3379     0326  2B28               	goto	u3701
  3380     0327  2B29               	goto	u3700
  3381     0328                     u3701:
  3382     0328  2B50               	goto	l4229
  3383     0329                     u3700:
  3384     0329                     l4225:
  3385     0329  087B               	movf	_event+1,w
  3386     032A  3A80               	xorlw	128
  3387     032B  00FF               	movwf	btemp+1
  3388     032C  3080               	movlw	128
  3389     032D  027F               	subwf	btemp+1,w
  3390     032E  1D03               	skipz
  3391     032F  2B32               	goto	u3715
  3392     0330  3001               	movlw	1
  3393     0331  027A               	subwf	_event,w
  3394     0332                     u3715:
  3395     0332  1C03               	skipc
  3396     0333  2B35               	goto	u3711
  3397     0334  2B36               	goto	u3710
  3398     0335                     u3711:
  3399     0335  2B50               	goto	l4229
  3400     0336                     u3710:
  3401     0336                     l4227:
  3402                           
  3403                           ;log_op.c: 27:     {;log_op.c: 28:         pos = (pos+1)%(event);
  3404     0336  087B               	movf	_event+1,w
  3405     0337  00F3               	movwf	___awmod@divisor+1
  3406     0338  087A               	movf	_event,w
  3407     0339  00F2               	movwf	___awmod@divisor
  3408     033A  1283               	bcf	3,5	;RP0=0, select bank0
  3409     033B  1303               	bcf	3,6	;RP1=0, select bank0
  3410     033C  0850               	movf	view_log@pos,w
  3411     033D  3E01               	addlw	1
  3412     033E  00F4               	movwf	___awmod@dividend
  3413     033F  0851               	movf	view_log@pos+1,w
  3414     0340  1803               	skipnc
  3415     0341  3E01               	addlw	1
  3416     0342  3E00               	addlw	0
  3417     0343  00F5               	movwf	___awmod@dividend+1
  3418     0344  120A  118A  27A7  120A  118A  	fcall	___awmod
  3419     0349  0873               	movf	?___awmod+1,w
  3420     034A  1283               	bcf	3,5	;RP0=0, select bank0
  3421     034B  1303               	bcf	3,6	;RP1=0, select bank0
  3422     034C  00D1               	movwf	view_log@pos+1
  3423     034D  0872               	movf	?___awmod,w
  3424     034E  00D0               	movwf	view_log@pos
  3425                           
  3426                           ;log_op.c: 29:     }
  3427     034F  2B7E               	goto	l4245
  3428     0350                     l4229:
  3429     0350  087A               	movf	_event,w
  3430     0351  047B               	iorwf	_event+1,w
  3431     0352  1D03               	btfss	3,2
  3432     0353  2B55               	goto	u3721
  3433     0354  2B56               	goto	u3720
  3434     0355                     u3721:
  3435     0355  2B7E               	goto	l4245
  3436     0356                     u3720:
  3437     0356                     l4231:
  3438                           
  3439                           ;log_op.c: 31:     {;log_op.c: 32:         clear_display();
  3440     0356  160A  118A  25A6  120A  118A  	fcall	_clear_display
  3441     035B                     l4233:
  3442                           
  3443                           ;log_op.c: 33:         clcd_print("NO LOGS.....",(0x80 + 0));
  3444     035B  30E1               	movlw	low (STR_28| (0+32768))
  3445     035C  00F6               	movwf	clcd_print@str
  3446     035D  3084               	movlw	high (STR_28| (0+32768))
  3447     035E  00F7               	movwf	clcd_print@str+1
  3448     035F  3080               	movlw	128
  3449     0360  00F8               	movwf	clcd_print@addr
  3450     0361  160A  118A  27A2  120A  118A  	fcall	_clcd_print
  3451     0366                     l4235:
  3452                           
  3453                           ;log_op.c: 34:         _delay((unsigned long)((3000)*(20000000/4000.0)));
  3454     0366  304D               	movlw	77
  3455     0367  1283               	bcf	3,5	;RP0=0, select bank0
  3456     0368  1303               	bcf	3,6	;RP1=0, select bank0
  3457     0369  00A4               	movwf	??_view_log+2
  3458     036A  3019               	movlw	25
  3459     036B  00A3               	movwf	??_view_log+1
  3460     036C  304F               	movlw	79
  3461     036D  00A2               	movwf	??_view_log
  3462     036E                     u4267:
  3463     036E  0BA2               	decfsz	??_view_log,f
  3464     036F  2B6E               	goto	u4267
  3465     0370  0BA3               	decfsz	??_view_log+1,f
  3466     0371  2B6E               	goto	u4267
  3467     0372  0BA4               	decfsz	??_view_log+2,f
  3468     0373  2B6E               	goto	u4267
  3469     0374                     l4237:
  3470                           
  3471                           ;log_op.c: 35:         clear_display();
  3472     0374  160A  118A  25A6  120A  118A  	fcall	_clear_display
  3473     0379                     l4239:
  3474     0379                     l4241:
  3475                           
  3476                           ;log_op.c: 37:         control_flag = 0x03;
  3477     0379  3003               	movlw	3
  3478     037A  1283               	bcf	3,5	;RP0=0, select bank0
  3479     037B  1303               	bcf	3,6	;RP1=0, select bank0
  3480     037C  00ED               	movwf	_control_flag
  3481     037D  2B91               	goto	l521
  3482     037E                     l4245:
  3483                           
  3484                           ;log_op.c: 40:     fetch_data_from_memory(pos);
  3485     037E  1283               	bcf	3,5	;RP0=0, select bank0
  3486     037F  1303               	bcf	3,6	;RP1=0, select bank0
  3487     0380  0850               	movf	view_log@pos,w
  3488     0381  120A  158A  24D3  120A  118A  	fcall	_fetch_data_from_memory
  3489     0386                     l4247:
  3490                           
  3491                           ;log_op.c: 41:     clcd_print(fetch_data , (0xC0 + 0));
  3492     0386  30A0               	movlw	(low (_fetch_data| 0))& (0+255)
  3493     0387  00F6               	movwf	clcd_print@str
  3494     0388  3000               	movlw	0
  3495     0389  00F7               	movwf	clcd_print@str+1
  3496     038A  30C0               	movlw	192
  3497     038B  00F8               	movwf	clcd_print@addr
  3498     038C  160A  118A  27A2  120A  118A  	fcall	_clcd_print
  3499     0391                     l521:
  3500     0391  0008               	return
  3501     0392                     __end_of_view_log:
  3502                           
  3503                           	psect	text2
  3504     16AD                     __ptext2:	
  3505 ;; *************** function _strcpy *****************
  3506 ;; Defined at:
  3507 ;;		line 3 in file "C:\Program Files\Microchip\xc8\v2.45\pic\sources\c99\common\strcpy.c"
  3508 ;; Parameters:    Size  Location     Type
  3509 ;;  dest            1    wreg     PTR unsigned char 
  3510 ;;		 -> main@event(3), 
  3511 ;;  src             2    2[COMMON] PTR const unsigned char 
  3512 ;;		 -> STR_7(3), STR_6(3), STR_5(3), STR_4(3), 
  3513 ;;		 -> STR_3(3), STR_2(3), STR_1(3), 
  3514 ;; Auto vars:     Size  Location     Type
  3515 ;;  dest            1    7[COMMON] PTR unsigned char 
  3516 ;;		 -> main@event(3), 
  3517 ;;  d               1    6[COMMON] PTR unsigned char 
  3518 ;;		 -> main@event(3), 
  3519 ;; Return value:  Size  Location     Type
  3520 ;;                  1    wreg      PTR unsigned char 
  3521 ;; Registers used:
  3522 ;;		wreg, fsr0l, fsr0h, status,2, status,0, btemp+1, pclath
  3523 ;; Tracked objects:
  3524 ;;		On entry : 0/0
  3525 ;;		On exit  : 0/0
  3526 ;;		Unchanged: 0/0
  3527 ;; Data sizes:     COMMON   BANK0   BANK1   BANK3   BANK2
  3528 ;;      Params:         2       0       0       0       0
  3529 ;;      Locals:         2       0       0       0       0
  3530 ;;      Temps:          2       0       0       0       0
  3531 ;;      Totals:         6       0       0       0       0
  3532 ;;Total ram usage:        6 bytes
  3533 ;; Hardware stack levels used: 2
  3534 ;; Hardware stack levels required when called: 1
  3535 ;; This function calls:
  3536 ;;		Nothing
  3537 ;; This function is called by:
  3538 ;;		_main
  3539 ;; This function uses a non-reentrant model
  3540 ;;
  3541                           
  3542     16AD                     _strcpy:	
  3543                           ;psect for function _strcpy
  3544                           
  3545                           
  3546                           ;incstack = 0
  3547                           ; Regs used in _strcpy: [wreg-fsr0h+status,2+status,0+btemp+1+pclath]
  3548                           ;strcpy@dest stored from wreg
  3549     16AD  00F7               	movwf	strcpy@dest
  3550     16AE                     l2887:
  3551     16AE  0877               	movf	strcpy@dest,w
  3552     16AF  00F6               	movwf	strcpy@d
  3553     16B0                     l2889:
  3554     16B0  0873               	movf	strcpy@src+1,w
  3555     16B1  00F5               	movwf	??_strcpy+1
  3556     16B2  0872               	movf	strcpy@src,w
  3557     16B3  00F4               	movwf	??_strcpy
  3558     16B4  0AF2               	incf	strcpy@src,f
  3559     16B5  1903               	skipnz
  3560     16B6  0AF3               	incf	strcpy@src+1,f
  3561     16B7  0875               	movf	??_strcpy+1,w
  3562     16B8  1283               	bcf	3,5	;RP0=0, select bank0
  3563     16B9  1303               	bcf	3,6	;RP1=0, select bank0
  3564     16BA  00FF               	movwf	btemp+1
  3565     16BB  0874               	movf	??_strcpy,w
  3566     16BC  0084               	movwf	4
  3567     16BD  160A  118A  2000  160A  118A  	fcall	stringtab
  3568     16C2  00FF               	movwf	btemp+1
  3569     16C3  0876               	movf	strcpy@d,w
  3570     16C4  0084               	movwf	4
  3571     16C5  3001               	movlw	1
  3572     16C6  07F6               	addwf	strcpy@d,f
  3573     16C7  087F               	movf	btemp+1,w
  3574     16C8  1383               	bcf	3,7	;select IRP bank0
  3575     16C9  0080               	movwf	0
  3576     16CA  0800               	movf	0,w
  3577     16CB  1D03               	btfss	3,2
  3578     16CC  2ECE               	goto	u2111
  3579     16CD  2ECF               	goto	u2110
  3580     16CE                     u2111:
  3581     16CE  2EB0               	goto	l2889
  3582     16CF                     u2110:
  3583     16CF                     l1128:
  3584     16CF  0008               	return
  3585     16D0                     __end_of_strcpy:
  3586                           
  3587                           	psect	text3
  3588     0D52                     __ptext3:	
  3589 ;; *************** function _set_time *****************
  3590 ;; Defined at:
  3591 ;;		line 15 in file "set_time.c"
  3592 ;; Parameters:    Size  Location     Type
  3593 ;;  key             1    wreg     unsigned char 
  3594 ;;  reset           1    2[BANK0 ] PTR unsigned char 
  3595 ;;		 -> main@reset(1), 
  3596 ;; Auto vars:     Size  Location     Type
  3597 ;;  key             1    5[BANK0 ] unsigned char 
  3598 ;;  i               2    6[BANK0 ] int 
  3599 ;; Return value:  Size  Location     Type
  3600 ;;                  1    wreg      void 
  3601 ;; Registers used:
  3602 ;;		wreg, fsr0l, fsr0h, status,2, status,0, btemp+1, pclath, cstack
  3603 ;; Tracked objects:
  3604 ;;		On entry : 0/0
  3605 ;;		On exit  : 0/0
  3606 ;;		Unchanged: 0/0
  3607 ;; Data sizes:     COMMON   BANK0   BANK1   BANK3   BANK2
  3608 ;;      Params:         0       1       0       0       0
  3609 ;;      Locals:         0       3       0       0       0
  3610 ;;      Temps:          0       2       0       0       0
  3611 ;;      Totals:         0       6       0       0       0
  3612 ;;Total ram usage:        6 bytes
  3613 ;; Hardware stack levels used: 1
  3614 ;; Hardware stack levels required when called: 3
  3615 ;; This function calls:
  3616 ;;		___lwmod
  3617 ;;		_clcd_print
  3618 ;;		_clcd_putch
  3619 ;; This function is called by:
  3620 ;;		_main
  3621 ;; This function uses a non-reentrant model
  3622 ;;
  3623                           
  3624     0D52                     _set_time:	
  3625                           ;psect for function _set_time
  3626                           
  3627                           
  3628                           ;incstack = 0
  3629                           ; Regs used in _set_time: [wreg-fsr0h+status,2+status,0+btemp+1+pclath+cstack]
  3630                           ;set_time@key stored from wreg
  3631     0D52  1283               	bcf	3,5	;RP0=0, select bank0
  3632     0D53  1303               	bcf	3,6	;RP1=0, select bank0
  3633     0D54  00A5               	movwf	set_time@key
  3634     0D55                     l4371:
  3635                           
  3636                           ;set_time.c: 15: void set_time(unsigned char key , unsigned char * reset);set_time.c: 16
      +                          : {;set_time.c: 17:     static int i = 0 , curs_flag ;;set_time.c: 18:     if(*reset == 
      +                          0x0F)
  3637     0D55  0822               	movf	set_time@reset,w
  3638     0D56  0084               	movwf	4
  3639     0D57  300F               	movlw	15
  3640     0D58  1383               	bcf	3,7	;select IRP bank0
  3641     0D59  0600               	xorwf	0,w
  3642     0D5A  1D03               	btfss	3,2
  3643     0D5B  2D5D               	goto	u3881
  3644     0D5C  2D5E               	goto	u3880
  3645     0D5D                     u3881:
  3646     0D5D  2D8B               	goto	l4397
  3647     0D5E                     u3880:
  3648     0D5E                     l4373:
  3649                           
  3650                           ;set_time.c: 19:     {;set_time.c: 20:         for(int i=0;i<8;i++)
  3651     0D5E  01A6               	clrf	set_time@i_415
  3652     0D5F  01A7               	clrf	set_time@i_415+1
  3653     0D60                     l4379:
  3654                           
  3655                           ;set_time.c: 21:             set_tm[i] = '0';
  3656     0D60  1283               	bcf	3,5	;RP0=0, select bank0
  3657     0D61  1303               	bcf	3,6	;RP1=0, select bank0
  3658     0D62  0826               	movf	set_time@i_415,w
  3659     0D63  3E5E               	addlw	(low (_set_tm| 0))& (0+255)
  3660     0D64  0084               	movwf	4
  3661     0D65  3030               	movlw	48
  3662     0D66  1383               	bcf	3,7	;select IRP bank0
  3663     0D67  0080               	movwf	0
  3664     0D68                     l4381:
  3665     0D68  3001               	movlw	1
  3666     0D69  07A6               	addwf	set_time@i_415,f
  3667     0D6A  1803               	skipnc
  3668     0D6B  0AA7               	incf	set_time@i_415+1,f
  3669     0D6C  3000               	movlw	0
  3670     0D6D  07A7               	addwf	set_time@i_415+1,f
  3671     0D6E                     l4383:
  3672     0D6E  0827               	movf	set_time@i_415+1,w
  3673     0D6F  3A80               	xorlw	128
  3674     0D70  00FF               	movwf	btemp+1
  3675     0D71  3080               	movlw	128
  3676     0D72  027F               	subwf	btemp+1,w
  3677     0D73  1D03               	skipz
  3678     0D74  2D77               	goto	u3895
  3679     0D75  3008               	movlw	8
  3680     0D76  0226               	subwf	set_time@i_415,w
  3681     0D77                     u3895:
  3682     0D77  1C03               	skipc
  3683     0D78  2D7A               	goto	u3891
  3684     0D79  2D7B               	goto	u3890
  3685     0D7A                     u3891:
  3686     0D7A  2D60               	goto	l4379
  3687     0D7B                     u3890:
  3688     0D7B                     l4385:
  3689                           
  3690                           ;set_time.c: 22:         i = 0;
  3691     0D7B  1283               	bcf	3,5	;RP0=0, select bank0
  3692     0D7C  1303               	bcf	3,6	;RP1=0, select bank0
  3693     0D7D  01D4               	clrf	set_time@i
  3694     0D7E  01D5               	clrf	set_time@i+1
  3695     0D7F                     l4387:
  3696                           
  3697                           ;set_time.c: 23:         key = 0x3F;
  3698     0D7F  303F               	movlw	63
  3699     0D80  00A5               	movwf	set_time@key
  3700     0D81                     l4389:
  3701                           
  3702                           ;set_time.c: 24:         *reset = 0x0B;
  3703     0D81  0822               	movf	set_time@reset,w
  3704     0D82  0084               	movwf	4
  3705     0D83  300B               	movlw	11
  3706     0D84  1383               	bcf	3,7	;select IRP bank0
  3707     0D85  0080               	movwf	0
  3708     0D86                     l4391:
  3709                           
  3710                           ;set_time.c: 25:         set_tm[2] = ':';
  3711     0D86  303A               	movlw	58
  3712     0D87  00E0               	movwf	_set_tm+2
  3713     0D88                     l4393:
  3714                           
  3715                           ;set_time.c: 26:         set_tm[5] = ':';
  3716     0D88  303A               	movlw	58
  3717     0D89  00E3               	movwf	_set_tm+5
  3718     0D8A                     l4395:
  3719                           
  3720                           ;set_time.c: 27:         set_tm[8] = '\0';
  3721     0D8A  01E6               	clrf	_set_tm+8
  3722     0D8B                     l4397:
  3723                           
  3724                           ;set_time.c: 29:     if(key == 0x37 && i < 7)
  3725     0D8B  3037               	movlw	55
  3726     0D8C  0625               	xorwf	set_time@key,w
  3727     0D8D  1D03               	btfss	3,2
  3728     0D8E  2D90               	goto	u3901
  3729     0D8F  2D91               	goto	u3900
  3730     0D90                     u3901:
  3731     0D90  2DBB               	goto	l4409
  3732     0D91                     u3900:
  3733     0D91                     l4399:
  3734     0D91  0855               	movf	set_time@i+1,w
  3735     0D92  3A80               	xorlw	128
  3736     0D93  00FF               	movwf	btemp+1
  3737     0D94  3080               	movlw	128
  3738     0D95  027F               	subwf	btemp+1,w
  3739     0D96  1D03               	skipz
  3740     0D97  2D9A               	goto	u3915
  3741     0D98  3007               	movlw	7
  3742     0D99  0254               	subwf	set_time@i,w
  3743     0D9A                     u3915:
  3744     0D9A  1803               	skipnc
  3745     0D9B  2D9D               	goto	u3911
  3746     0D9C  2D9E               	goto	u3910
  3747     0D9D                     u3911:
  3748     0D9D  2DBB               	goto	l4409
  3749     0D9E                     u3910:
  3750     0D9E                     l4401:
  3751                           
  3752                           ;set_time.c: 30:     {;set_time.c: 31:        i++;
  3753     0D9E  3001               	movlw	1
  3754     0D9F  1283               	bcf	3,5	;RP0=0, select bank0
  3755     0DA0  1303               	bcf	3,6	;RP1=0, select bank0
  3756     0DA1  07D4               	addwf	set_time@i,f
  3757     0DA2  1803               	skipnc
  3758     0DA3  0AD5               	incf	set_time@i+1,f
  3759     0DA4  3000               	movlw	0
  3760     0DA5  07D5               	addwf	set_time@i+1,f
  3761     0DA6                     l4403:
  3762                           
  3763                           ;set_time.c: 32:        if(i==2 || i==5)
  3764     0DA6  3002               	movlw	2
  3765     0DA7  0654               	xorwf	set_time@i,w
  3766     0DA8  0455               	iorwf	set_time@i+1,w
  3767     0DA9  1903               	btfsc	3,2
  3768     0DAA  2DAC               	goto	u3921
  3769     0DAB  2DAD               	goto	u3920
  3770     0DAC                     u3921:
  3771     0DAC  2DB4               	goto	l4407
  3772     0DAD                     u3920:
  3773     0DAD                     l4405:
  3774     0DAD  3005               	movlw	5
  3775     0DAE  0654               	xorwf	set_time@i,w
  3776     0DAF  0455               	iorwf	set_time@i+1,w
  3777     0DB0  1D03               	btfss	3,2
  3778     0DB1  2DB3               	goto	u3931
  3779     0DB2  2DB4               	goto	u3930
  3780     0DB3                     u3931:
  3781     0DB3  2E6D               	goto	l4433
  3782     0DB4                     u3930:
  3783     0DB4                     l4407:
  3784                           
  3785                           ;set_time.c: 33:            i++;
  3786     0DB4  3001               	movlw	1
  3787     0DB5  07D4               	addwf	set_time@i,f
  3788     0DB6  1803               	skipnc
  3789     0DB7  0AD5               	incf	set_time@i+1,f
  3790     0DB8  3000               	movlw	0
  3791     0DB9  07D5               	addwf	set_time@i+1,f
  3792     0DBA  2E6D               	goto	l4433
  3793     0DBB                     l4409:
  3794     0DBB  302F               	movlw	47
  3795     0DBC  1283               	bcf	3,5	;RP0=0, select bank0
  3796     0DBD  1303               	bcf	3,6	;RP1=0, select bank0
  3797     0DBE  0625               	xorwf	set_time@key,w
  3798     0DBF  1D03               	btfss	3,2
  3799     0DC0  2DC2               	goto	u3941
  3800     0DC1  2DC3               	goto	u3940
  3801     0DC2                     u3941:
  3802     0DC2  2E6D               	goto	l4433
  3803     0DC3                     u3940:
  3804     0DC3  2E54               	goto	l4431
  3805     0DC4                     l4413:
  3806                           
  3807                           ;set_time.c: 40:                 set_tm[0] = '0' + (set_tm[0]-'0'+1)% 3;
  3808     0DC4  3003               	movlw	3
  3809     0DC5  00F2               	movwf	___lwmod@divisor
  3810     0DC6  3000               	movlw	0
  3811     0DC7  00F3               	movwf	___lwmod@divisor+1
  3812     0DC8  085E               	movf	_set_tm,w
  3813     0DC9  3ED1               	addlw	209
  3814     0DCA  00F4               	movwf	___lwmod@dividend
  3815     0DCB  30FF               	movlw	255
  3816     0DCC  1803               	skipnc
  3817     0DCD  3000               	movlw	0
  3818     0DCE  00F5               	movwf	___lwmod@dividend+1
  3819     0DCF  120A  158A  2121  120A  158A  	fcall	___lwmod
  3820     0DD4  0872               	movf	?___lwmod,w
  3821     0DD5  3E30               	addlw	48
  3822     0DD6  1283               	bcf	3,5	;RP0=0, select bank0
  3823     0DD7  1303               	bcf	3,6	;RP1=0, select bank0
  3824     0DD8  00DE               	movwf	_set_tm
  3825                           
  3826                           ;set_time.c: 41:                 break;
  3827     0DD9  2E6D               	goto	l4433
  3828     0DDA                     l4415:
  3829                           
  3830                           ;set_time.c: 43:                 if(set_tm[0] == '2')
  3831     0DDA  3032               	movlw	50
  3832     0DDB  065E               	xorwf	_set_tm,w
  3833     0DDC  1D03               	btfss	3,2
  3834     0DDD  2DDF               	goto	u3951
  3835     0DDE  2DE0               	goto	u3950
  3836     0DDF                     u3951:
  3837     0DDF  2DE6               	goto	l4419
  3838     0DE0                     u3950:
  3839     0DE0                     l4417:
  3840                           
  3841                           ;set_time.c: 44:                     set_tm[1] = '0' + (set_tm[1]-'0'+1) % 4;
  3842     0DE0  085F               	movf	_set_tm+1,w
  3843     0DE1  3ED1               	addlw	209
  3844     0DE2  3903               	andlw	3
  3845     0DE3  3E30               	addlw	48
  3846     0DE4  00DF               	movwf	_set_tm+1
  3847     0DE5  2E6D               	goto	l4433
  3848     0DE6                     l4419:
  3849                           
  3850                           ;set_time.c: 46:                     set_tm[1] = '0' + (set_tm[1]-'0'+1)%10;
  3851     0DE6  300A               	movlw	10
  3852     0DE7  00F2               	movwf	___lwmod@divisor
  3853     0DE8  3000               	movlw	0
  3854     0DE9  00F3               	movwf	___lwmod@divisor+1
  3855     0DEA  085F               	movf	_set_tm+1,w
  3856     0DEB  3ED1               	addlw	209
  3857     0DEC  00F4               	movwf	___lwmod@dividend
  3858     0DED  30FF               	movlw	255
  3859     0DEE  1803               	skipnc
  3860     0DEF  3000               	movlw	0
  3861     0DF0  00F5               	movwf	___lwmod@dividend+1
  3862     0DF1  120A  158A  2121  120A  158A  	fcall	___lwmod
  3863     0DF6  0872               	movf	?___lwmod,w
  3864     0DF7  3E30               	addlw	48
  3865     0DF8  1283               	bcf	3,5	;RP0=0, select bank0
  3866     0DF9  1303               	bcf	3,6	;RP1=0, select bank0
  3867     0DFA  00DF               	movwf	_set_tm+1
  3868     0DFB  2E6D               	goto	l4433
  3869     0DFC                     l4421:
  3870                           
  3871                           ;set_time.c: 49:                 set_tm[3] = '0' + (set_tm[3]-'0'+1)%6;
  3872     0DFC  3006               	movlw	6
  3873     0DFD  00F2               	movwf	___lwmod@divisor
  3874     0DFE  3000               	movlw	0
  3875     0DFF  00F3               	movwf	___lwmod@divisor+1
  3876     0E00  0861               	movf	_set_tm+3,w
  3877     0E01  3ED1               	addlw	209
  3878     0E02  00F4               	movwf	___lwmod@dividend
  3879     0E03  30FF               	movlw	255
  3880     0E04  1803               	skipnc
  3881     0E05  3000               	movlw	0
  3882     0E06  00F5               	movwf	___lwmod@dividend+1
  3883     0E07  120A  158A  2121  120A  158A  	fcall	___lwmod
  3884     0E0C  0872               	movf	?___lwmod,w
  3885     0E0D  3E30               	addlw	48
  3886     0E0E  1283               	bcf	3,5	;RP0=0, select bank0
  3887     0E0F  1303               	bcf	3,6	;RP1=0, select bank0
  3888     0E10  00E1               	movwf	_set_tm+3
  3889                           
  3890                           ;set_time.c: 50:                 break;
  3891     0E11  2E6D               	goto	l4433
  3892     0E12                     l4423:
  3893                           
  3894                           ;set_time.c: 52:                 set_tm[4] = '0' + (set_tm[4]-'0'+1)%10;
  3895     0E12  300A               	movlw	10
  3896     0E13  00F2               	movwf	___lwmod@divisor
  3897     0E14  3000               	movlw	0
  3898     0E15  00F3               	movwf	___lwmod@divisor+1
  3899     0E16  0862               	movf	_set_tm+4,w
  3900     0E17  3ED1               	addlw	209
  3901     0E18  00F4               	movwf	___lwmod@dividend
  3902     0E19  30FF               	movlw	255
  3903     0E1A  1803               	skipnc
  3904     0E1B  3000               	movlw	0
  3905     0E1C  00F5               	movwf	___lwmod@dividend+1
  3906     0E1D  120A  158A  2121  120A  158A  	fcall	___lwmod
  3907     0E22  0872               	movf	?___lwmod,w
  3908     0E23  3E30               	addlw	48
  3909     0E24  1283               	bcf	3,5	;RP0=0, select bank0
  3910     0E25  1303               	bcf	3,6	;RP1=0, select bank0
  3911     0E26  00E2               	movwf	_set_tm+4
  3912                           
  3913                           ;set_time.c: 53:                 break;
  3914     0E27  2E6D               	goto	l4433
  3915     0E28                     l4425:
  3916                           
  3917                           ;set_time.c: 55:                 set_tm[6] = '0' + (set_tm[6]-'0'+1)%6;
  3918     0E28  3006               	movlw	6
  3919     0E29  00F2               	movwf	___lwmod@divisor
  3920     0E2A  3000               	movlw	0
  3921     0E2B  00F3               	movwf	___lwmod@divisor+1
  3922     0E2C  0864               	movf	_set_tm+6,w
  3923     0E2D  3ED1               	addlw	209
  3924     0E2E  00F4               	movwf	___lwmod@dividend
  3925     0E2F  30FF               	movlw	255
  3926     0E30  1803               	skipnc
  3927     0E31  3000               	movlw	0
  3928     0E32  00F5               	movwf	___lwmod@dividend+1
  3929     0E33  120A  158A  2121  120A  158A  	fcall	___lwmod
  3930     0E38  0872               	movf	?___lwmod,w
  3931     0E39  3E30               	addlw	48
  3932     0E3A  1283               	bcf	3,5	;RP0=0, select bank0
  3933     0E3B  1303               	bcf	3,6	;RP1=0, select bank0
  3934     0E3C  00E4               	movwf	_set_tm+6
  3935                           
  3936                           ;set_time.c: 56:                 break;
  3937     0E3D  2E6D               	goto	l4433
  3938     0E3E                     l4427:
  3939                           
  3940                           ;set_time.c: 58:                 set_tm[7] = '0' + (set_tm[7]-'0'+1)%10;
  3941     0E3E  300A               	movlw	10
  3942     0E3F  00F2               	movwf	___lwmod@divisor
  3943     0E40  3000               	movlw	0
  3944     0E41  00F3               	movwf	___lwmod@divisor+1
  3945     0E42  0865               	movf	_set_tm+7,w
  3946     0E43  3ED1               	addlw	209
  3947     0E44  00F4               	movwf	___lwmod@dividend
  3948     0E45  30FF               	movlw	255
  3949     0E46  1803               	skipnc
  3950     0E47  3000               	movlw	0
  3951     0E48  00F5               	movwf	___lwmod@dividend+1
  3952     0E49  120A  158A  2121  120A  158A  	fcall	___lwmod
  3953     0E4E  0872               	movf	?___lwmod,w
  3954     0E4F  3E30               	addlw	48
  3955     0E50  1283               	bcf	3,5	;RP0=0, select bank0
  3956     0E51  1303               	bcf	3,6	;RP1=0, select bank0
  3957     0E52  00E5               	movwf	_set_tm+7
  3958                           
  3959                           ;set_time.c: 59:                 break;
  3960     0E53  2E6D               	goto	l4433
  3961     0E54                     l4431:
  3962                           
  3963                           ; Switch on 2 bytes has been partitioned into a top level switch of size 1, and 1 sub-sw
      +                          itches
  3964                           ; Switch size 1, requested type "simple"
  3965                           ; Number of cases is 1, Range of values is 0 to 0
  3966                           ; switch strategies available:
  3967                           ; Name         Instructions Cycles
  3968                           ; simple_byte            4     3 (average)
  3969                           ; direct_byte           11     8 (fixed)
  3970                           ; jumptable            260     6 (fixed)
  3971                           ;	Chosen strategy is simple_byte
  3972     0E54  0855               	movf	set_time@i+1,w
  3973     0E55  3A00               	xorlw	0	; case 0
  3974     0E56  1903               	skipnz
  3975     0E57  2E59               	goto	l4747
  3976     0E58  2E6D               	goto	l4433
  3977     0E59                     l4747:
  3978                           
  3979                           ; Switch size 1, requested type "simple"
  3980                           ; Number of cases is 6, Range of values is 0 to 7
  3981                           ; switch strategies available:
  3982                           ; Name         Instructions Cycles
  3983                           ; simple_byte           19    10 (average)
  3984                           ; direct_byte           32     8 (fixed)
  3985                           ; jumptable            260     6 (fixed)
  3986                           ;	Chosen strategy is simple_byte
  3987     0E59  0854               	movf	set_time@i,w
  3988     0E5A  3A00               	xorlw	0	; case 0
  3989     0E5B  1903               	skipnz
  3990     0E5C  2DC4               	goto	l4413
  3991     0E5D  3A01               	xorlw	1	; case 1
  3992     0E5E  1903               	skipnz
  3993     0E5F  2DDA               	goto	l4415
  3994     0E60  3A02               	xorlw	2	; case 3
  3995     0E61  1903               	skipnz
  3996     0E62  2DFC               	goto	l4421
  3997     0E63  3A07               	xorlw	7	; case 4
  3998     0E64  1903               	skipnz
  3999     0E65  2E12               	goto	l4423
  4000     0E66  3A02               	xorlw	2	; case 6
  4001     0E67  1903               	skipnz
  4002     0E68  2E28               	goto	l4425
  4003     0E69  3A01               	xorlw	1	; case 7
  4004     0E6A  1903               	skipnz
  4005     0E6B  2E3E               	goto	l4427
  4006     0E6C  2E6D               	goto	l4433
  4007     0E6D                     l4433:
  4008                           
  4009                           ;set_time.c: 62:     if(set_tm[0] == '2')
  4010     0E6D  3032               	movlw	50
  4011     0E6E  065E               	xorwf	_set_tm,w
  4012     0E6F  1D03               	btfss	3,2
  4013     0E70  2E72               	goto	u3961
  4014     0E71  2E73               	goto	u3960
  4015     0E72                     u3961:
  4016     0E72  2E78               	goto	l4437
  4017     0E73                     u3960:
  4018     0E73                     l4435:
  4019                           
  4020                           ;set_time.c: 63:           set_tm[1] = '0' + (set_tm[1]-'0') % 4;
  4021     0E73  085F               	movf	_set_tm+1,w
  4022     0E74  3ED0               	addlw	208
  4023     0E75  3903               	andlw	3
  4024     0E76  3E30               	addlw	48
  4025     0E77  00DF               	movwf	_set_tm+1
  4026     0E78                     l4437:
  4027                           
  4028                           ;set_time.c: 64:     clcd_print(set_tm,(0xC0 + 0));
  4029     0E78  305E               	movlw	(low (_set_tm| 0))& (0+255)
  4030     0E79  00F6               	movwf	clcd_print@str
  4031     0E7A  3000               	movlw	0
  4032     0E7B  00F7               	movwf	clcd_print@str+1
  4033     0E7C  30C0               	movlw	192
  4034     0E7D  00F8               	movwf	clcd_print@addr
  4035     0E7E  160A  118A  27A2  120A  158A  	fcall	_clcd_print
  4036     0E83                     l4439:
  4037                           
  4038                           ;set_time.c: 65:     if(curs_flag = (!curs_flag))
  4039     0E83  1283               	bcf	3,5	;RP0=0, select bank0
  4040     0E84  1303               	bcf	3,6	;RP1=0, select bank0
  4041     0E85  0852               	movf	set_time@curs_flag,w
  4042     0E86  0453               	iorwf	set_time@curs_flag+1,w
  4043     0E87  1903               	btfsc	3,2
  4044     0E88  2E8A               	goto	u3971
  4045     0E89  2E8C               	goto	u3970
  4046     0E8A                     u3971:
  4047     0E8A  3001               	movlw	1
  4048     0E8B  2E8D               	goto	u3980
  4049     0E8C                     u3970:
  4050     0E8C  3000               	movlw	0
  4051     0E8D                     u3980:
  4052     0E8D  00A3               	movwf	??_set_time
  4053     0E8E  01A4               	clrf	??_set_time+1
  4054     0E8F  0823               	movf	??_set_time,w
  4055     0E90  00D2               	movwf	set_time@curs_flag
  4056     0E91  0824               	movf	??_set_time+1,w
  4057     0E92  00D3               	movwf	set_time@curs_flag+1
  4058     0E93  0852               	movf	set_time@curs_flag,w
  4059     0E94  0453               	iorwf	set_time@curs_flag+1,w
  4060     0E95  1903               	btfsc	3,2
  4061     0E96  2E98               	goto	u3991
  4062     0E97  2E99               	goto	u3990
  4063     0E98                     u3991:
  4064     0E98  2EA2               	goto	l487
  4065     0E99                     u3990:
  4066     0E99                     l4441:
  4067                           
  4068                           ;set_time.c: 66:         clcd_putch(0xFF , (0xC0 + i));
  4069     0E99  0854               	movf	set_time@i,w
  4070     0E9A  3EC0               	addlw	192
  4071     0E9B  00A0               	movwf	clcd_putch@addr
  4072     0E9C  30FF               	movlw	255
  4073     0E9D  160A  118A  25EF  120A  158A  	fcall	_clcd_putch
  4074     0EA2                     l487:
  4075     0EA2  0008               	return
  4076     0EA3                     __end_of_set_time:
  4077                           
  4078                           	psect	text4
  4079     0921                     __ptext4:	
  4080 ;; *************** function ___lwmod *****************
  4081 ;; Defined at:
  4082 ;;		line 5 in file "C:\Program Files\Microchip\xc8\v2.45\pic\sources\c99\common\lwmod.c"
  4083 ;; Parameters:    Size  Location     Type
  4084 ;;  divisor         2    2[COMMON] unsigned int 
  4085 ;;  dividend        2    4[COMMON] unsigned int 
  4086 ;; Auto vars:     Size  Location     Type
  4087 ;;  counter         1    6[COMMON] unsigned char 
  4088 ;; Return value:  Size  Location     Type
  4089 ;;                  2    2[COMMON] unsigned int 
  4090 ;; Registers used:
  4091 ;;		wreg, status,2, status,0, btemp+1
  4092 ;; Tracked objects:
  4093 ;;		On entry : 0/0
  4094 ;;		On exit  : 0/0
  4095 ;;		Unchanged: 0/0
  4096 ;; Data sizes:     COMMON   BANK0   BANK1   BANK3   BANK2
  4097 ;;      Params:         4       0       0       0       0
  4098 ;;      Locals:         1       0       0       0       0
  4099 ;;      Temps:          0       0       0       0       0
  4100 ;;      Totals:         5       0       0       0       0
  4101 ;;Total ram usage:        5 bytes
  4102 ;; Hardware stack levels used: 1
  4103 ;; Hardware stack levels required when called: 1
  4104 ;; This function calls:
  4105 ;;		Nothing
  4106 ;; This function is called by:
  4107 ;;		_set_time
  4108 ;; This function uses a non-reentrant model
  4109 ;;
  4110                           
  4111     0921                     ___lwmod:	
  4112                           ;psect for function ___lwmod
  4113                           
  4114     0921                     l2787:	
  4115                           ;incstack = 0
  4116                           ; Regs used in ___lwmod: [wreg+status,2+status,0+btemp+1]
  4117                           
  4118     0921  0872               	movf	___lwmod@divisor,w
  4119     0922  0473               	iorwf	___lwmod@divisor+1,w
  4120     0923  1903               	btfsc	3,2
  4121     0924  2926               	goto	u2001
  4122     0925  2927               	goto	u2000
  4123     0926                     u2001:
  4124     0926  2956               	goto	l2805
  4125     0927                     u2000:
  4126     0927                     l2789:
  4127     0927  01F6               	clrf	___lwmod@counter
  4128     0928  0AF6               	incf	___lwmod@counter,f
  4129     0929  2935               	goto	l2795
  4130     092A                     l2791:
  4131     092A  3001               	movlw	1
  4132     092B                     u2015:
  4133     092B  1003               	clrc
  4134     092C  0DF2               	rlf	___lwmod@divisor,f
  4135     092D  0DF3               	rlf	___lwmod@divisor+1,f
  4136     092E  3EFF               	addlw	-1
  4137     092F  1D03               	skipz
  4138     0930  292B               	goto	u2015
  4139     0931                     l2793:
  4140     0931  3001               	movlw	1
  4141     0932  00FF               	movwf	btemp+1
  4142     0933  087F               	movf	btemp+1,w
  4143     0934  07F6               	addwf	___lwmod@counter,f
  4144     0935                     l2795:
  4145     0935  1FF3               	btfss	___lwmod@divisor+1,7
  4146     0936  2938               	goto	u2021
  4147     0937  2939               	goto	u2020
  4148     0938                     u2021:
  4149     0938  292A               	goto	l2791
  4150     0939                     u2020:
  4151     0939                     l2797:
  4152     0939  0873               	movf	___lwmod@divisor+1,w
  4153     093A  0275               	subwf	___lwmod@dividend+1,w
  4154     093B  1D03               	skipz
  4155     093C  293F               	goto	u2035
  4156     093D  0872               	movf	___lwmod@divisor,w
  4157     093E  0274               	subwf	___lwmod@dividend,w
  4158     093F                     u2035:
  4159     093F  1C03               	skipc
  4160     0940  2942               	goto	u2031
  4161     0941  2943               	goto	u2030
  4162     0942                     u2031:
  4163     0942  2949               	goto	l2801
  4164     0943                     u2030:
  4165     0943                     l2799:
  4166     0943  0872               	movf	___lwmod@divisor,w
  4167     0944  02F4               	subwf	___lwmod@dividend,f
  4168     0945  0873               	movf	___lwmod@divisor+1,w
  4169     0946  1C03               	skipc
  4170     0947  03F5               	decf	___lwmod@dividend+1,f
  4171     0948  02F5               	subwf	___lwmod@dividend+1,f
  4172     0949                     l2801:
  4173     0949  3001               	movlw	1
  4174     094A                     u2045:
  4175     094A  1003               	clrc
  4176     094B  0CF3               	rrf	___lwmod@divisor+1,f
  4177     094C  0CF2               	rrf	___lwmod@divisor,f
  4178     094D  3EFF               	addlw	-1
  4179     094E  1D03               	skipz
  4180     094F  294A               	goto	u2045
  4181     0950                     l2803:
  4182     0950  3001               	movlw	1
  4183     0951  02F6               	subwf	___lwmod@counter,f
  4184     0952  1D03               	btfss	3,2
  4185     0953  2955               	goto	u2051
  4186     0954  2956               	goto	u2050
  4187     0955                     u2051:
  4188     0955  2939               	goto	l2797
  4189     0956                     u2050:
  4190     0956                     l2805:
  4191     0956  0875               	movf	___lwmod@dividend+1,w
  4192     0957  00F3               	movwf	?___lwmod+1
  4193     0958  0874               	movf	___lwmod@dividend,w
  4194     0959  00F2               	movwf	?___lwmod
  4195     095A                     l956:
  4196     095A  0008               	return
  4197     095B                     __end_of___lwmod:
  4198                           
  4199                           	psect	text5
  4200     09DD                     __ptext5:	
  4201 ;; *************** function _save_time *****************
  4202 ;; Defined at:
  4203 ;;		line 69 in file "set_time.c"
  4204 ;; Parameters:    Size  Location     Type
  4205 ;;		None
  4206 ;; Auto vars:     Size  Location     Type
  4207 ;;  data            1    7[COMMON] unsigned char 
  4208 ;; Return value:  Size  Location     Type
  4209 ;;                  1    wreg      void 
  4210 ;; Registers used:
  4211 ;;		wreg, status,2, status,0, pclath, cstack
  4212 ;; Tracked objects:
  4213 ;;		On entry : 0/0
  4214 ;;		On exit  : 0/0
  4215 ;;		Unchanged: 0/0
  4216 ;; Data sizes:     COMMON   BANK0   BANK1   BANK3   BANK2
  4217 ;;      Params:         0       0       0       0       0
  4218 ;;      Locals:         1       0       0       0       0
  4219 ;;      Temps:          2       0       0       0       0
  4220 ;;      Totals:         3       0       0       0       0
  4221 ;;Total ram usage:        3 bytes
  4222 ;; Hardware stack levels used: 1
  4223 ;; Hardware stack levels required when called: 4
  4224 ;; This function calls:
  4225 ;;		_write_ds1307
  4226 ;; This function is called by:
  4227 ;;		_main
  4228 ;; This function uses a non-reentrant model
  4229 ;;
  4230                           
  4231     09DD                     _save_time:	
  4232                           ;psect for function _save_time
  4233                           
  4234     09DD                     l4035:	
  4235                           ;incstack = 0
  4236                           ; Regs used in _save_time: [wreg+status,2+status,0+pclath+cstack]
  4237                           
  4238                           
  4239                           ;set_time.c: 71:     unsigned char data = 0;
  4240     09DD  01F7               	clrf	save_time@data
  4241     09DE                     l4037:
  4242                           
  4243                           ;set_time.c: 72:     data = data| ((set_tm[0]-'0')<<4) | (set_tm[1] - '0');
  4244     09DE  1283               	bcf	3,5	;RP0=0, select bank0
  4245     09DF  1303               	bcf	3,6	;RP1=0, select bank0
  4246     09E0  085E               	movf	_set_tm,w
  4247     09E1  00F5               	movwf	??_save_time
  4248     09E2  3004               	movlw	4
  4249     09E3                     u3465:
  4250     09E3  1003               	clrc
  4251     09E4  0DF5               	rlf	??_save_time,f
  4252     09E5  3EFF               	addlw	-1
  4253     09E6  1D03               	skipz
  4254     09E7  29E3               	goto	u3465
  4255     09E8  0877               	movf	save_time@data,w
  4256     09E9  0475               	iorwf	??_save_time,w
  4257     09EA  00F6               	movwf	??_save_time+1
  4258     09EB  085F               	movf	_set_tm+1,w
  4259     09EC  3ED0               	addlw	208
  4260     09ED  0476               	iorwf	??_save_time+1,w
  4261     09EE  00F7               	movwf	save_time@data
  4262     09EF                     l4039:
  4263                           
  4264                           ;set_time.c: 73:     write_ds1307(0x02,data);
  4265     09EF  0877               	movf	save_time@data,w
  4266     09F0  00F3               	movwf	write_ds1307@data
  4267     09F1  3002               	movlw	2
  4268     09F2  160A  118A  266E  120A  158A  	fcall	_write_ds1307
  4269     09F7                     l4041:
  4270                           
  4271                           ;set_time.c: 74:     data = 0;
  4272     09F7  01F7               	clrf	save_time@data
  4273     09F8                     l4043:
  4274                           
  4275                           ;set_time.c: 75:     data = data| ((set_tm[3]-'0')<<4) | (set_tm[4] - '0');
  4276     09F8  1283               	bcf	3,5	;RP0=0, select bank0
  4277     09F9  1303               	bcf	3,6	;RP1=0, select bank0
  4278     09FA  0861               	movf	_set_tm+3,w
  4279     09FB  00F5               	movwf	??_save_time
  4280     09FC  3004               	movlw	4
  4281     09FD                     u3475:
  4282     09FD  1003               	clrc
  4283     09FE  0DF5               	rlf	??_save_time,f
  4284     09FF  3EFF               	addlw	-1
  4285     0A00  1D03               	skipz
  4286     0A01  29FD               	goto	u3475
  4287     0A02  0877               	movf	save_time@data,w
  4288     0A03  0475               	iorwf	??_save_time,w
  4289     0A04  00F6               	movwf	??_save_time+1
  4290     0A05  0862               	movf	_set_tm+4,w
  4291     0A06  3ED0               	addlw	208
  4292     0A07  0476               	iorwf	??_save_time+1,w
  4293     0A08  00F7               	movwf	save_time@data
  4294                           
  4295                           ;set_time.c: 76:     write_ds1307(0x01,data);
  4296     0A09  0877               	movf	save_time@data,w
  4297     0A0A  00F3               	movwf	write_ds1307@data
  4298     0A0B  3001               	movlw	1
  4299     0A0C  160A  118A  266E  120A  158A  	fcall	_write_ds1307
  4300     0A11                     l4045:
  4301                           
  4302                           ;set_time.c: 77:     data = 0;
  4303     0A11  01F7               	clrf	save_time@data
  4304     0A12                     l4047:
  4305                           
  4306                           ;set_time.c: 78:     data = data| ((set_tm[6]-'0')<<4) | (set_tm[7] - '0');
  4307     0A12  1283               	bcf	3,5	;RP0=0, select bank0
  4308     0A13  1303               	bcf	3,6	;RP1=0, select bank0
  4309     0A14  0864               	movf	_set_tm+6,w
  4310     0A15  00F5               	movwf	??_save_time
  4311     0A16  3004               	movlw	4
  4312     0A17                     u3485:
  4313     0A17  1003               	clrc
  4314     0A18  0DF5               	rlf	??_save_time,f
  4315     0A19  3EFF               	addlw	-1
  4316     0A1A  1D03               	skipz
  4317     0A1B  2A17               	goto	u3485
  4318     0A1C  0877               	movf	save_time@data,w
  4319     0A1D  0475               	iorwf	??_save_time,w
  4320     0A1E  00F6               	movwf	??_save_time+1
  4321     0A1F  0865               	movf	_set_tm+7,w
  4322     0A20  3ED0               	addlw	208
  4323     0A21  0476               	iorwf	??_save_time+1,w
  4324     0A22  00F7               	movwf	save_time@data
  4325     0A23                     l4049:
  4326                           
  4327                           ;set_time.c: 79:     write_ds1307(0x00,data);
  4328     0A23  0877               	movf	save_time@data,w
  4329     0A24  00F3               	movwf	write_ds1307@data
  4330     0A25  3000               	movlw	0
  4331     0A26  160A  118A  266E  120A  158A  	fcall	_write_ds1307
  4332     0A2B                     l490:
  4333     0A2B  0008               	return
  4334     0A2C                     __end_of_save_time:
  4335                           
  4336                           	psect	text6
  4337     16F6                     __ptext6:	
  4338 ;; *************** function _read_digital_keypad *****************
  4339 ;; Defined at:
  4340 ;;		line 20 in file "digital_keypad.c"
  4341 ;; Parameters:    Size  Location     Type
  4342 ;;  mode            1    wreg     unsigned char 
  4343 ;; Auto vars:     Size  Location     Type
  4344 ;;  mode            1    3[COMMON] unsigned char 
  4345 ;; Return value:  Size  Location     Type
  4346 ;;                  1    wreg      unsigned char 
  4347 ;; Registers used:
  4348 ;;		wreg, status,2, status,0
  4349 ;; Tracked objects:
  4350 ;;		On entry : 0/0
  4351 ;;		On exit  : 0/0
  4352 ;;		Unchanged: 0/0
  4353 ;; Data sizes:     COMMON   BANK0   BANK1   BANK3   BANK2
  4354 ;;      Params:         0       0       0       0       0
  4355 ;;      Locals:         1       0       0       0       0
  4356 ;;      Temps:          1       0       0       0       0
  4357 ;;      Totals:         2       0       0       0       0
  4358 ;;Total ram usage:        2 bytes
  4359 ;; Hardware stack levels used: 1
  4360 ;; Hardware stack levels required when called: 1
  4361 ;; This function calls:
  4362 ;;		Nothing
  4363 ;; This function is called by:
  4364 ;;		_main
  4365 ;; This function uses a non-reentrant model
  4366 ;;
  4367                           
  4368     16F6                     _read_digital_keypad:	
  4369                           ;psect for function _read_digital_keypad
  4370                           
  4371                           
  4372                           ;incstack = 0
  4373                           ; Regs used in _read_digital_keypad: [wreg+status,2+status,0]
  4374                           ;read_digital_keypad@mode stored from wreg
  4375     16F6  00F3               	movwf	read_digital_keypad@mode
  4376     16F7                     l2859:
  4377                           
  4378                           ;digital_keypad.c: 20: unsigned char read_digital_keypad(unsigned char mode);digital_key
      +                          pad.c: 21: {;digital_keypad.c: 22:     static unsigned char once = 1;;digital_keypad.c: 
      +                          24:     if (mode == 0)
  4379     16F7  0873               	movf	read_digital_keypad@mode,w
  4380     16F8  1D03               	btfss	3,2
  4381     16F9  2EFB               	goto	u2071
  4382     16FA  2EFC               	goto	u2070
  4383     16FB                     u2071:
  4384     16FB  2F01               	goto	l2867
  4385     16FC                     u2070:
  4386     16FC                     l2861:
  4387                           
  4388                           ;digital_keypad.c: 25:     {;digital_keypad.c: 26:         return PORTB & 0x3F;
  4389     16FC  1283               	bcf	3,5	;RP0=0, select bank0
  4390     16FD  1303               	bcf	3,6	;RP1=0, select bank0
  4391     16FE  0806               	movf	6,w	;volatile
  4392     16FF  393F               	andlw	63
  4393     1700  2F1F               	goto	l138
  4394     1701                     l2867:
  4395                           
  4396                           ;digital_keypad.c: 29:     {;digital_keypad.c: 30:         if (((PORTB & 0x3F) != 0x3F) 
      +                          && once)
  4397     1701  303F               	movlw	63
  4398     1702  1283               	bcf	3,5	;RP0=0, select bank0
  4399     1703  1303               	bcf	3,6	;RP1=0, select bank0
  4400     1704  0506               	andwf	6,w	;volatile
  4401     1705  00F2               	movwf	??_read_digital_keypad
  4402     1706  303F               	movlw	63
  4403     1707  0672               	xorwf	??_read_digital_keypad,w
  4404     1708  1903               	btfsc	3,2
  4405     1709  2F0B               	goto	u2081
  4406     170A  2F0C               	goto	u2080
  4407     170B                     u2081:
  4408     170B  2F13               	goto	l2879
  4409     170C                     u2080:
  4410     170C                     l2869:
  4411     170C  086C               	movf	read_digital_keypad@once,w
  4412     170D  1903               	btfsc	3,2
  4413     170E  2F10               	goto	u2091
  4414     170F  2F11               	goto	u2090
  4415     1710                     u2091:
  4416     1710  2F13               	goto	l2879
  4417     1711                     u2090:
  4418     1711                     l2871:
  4419                           
  4420                           ;digital_keypad.c: 31:         {;digital_keypad.c: 32:             once = 0;
  4421     1711  01EC               	clrf	read_digital_keypad@once
  4422     1712  2EFC               	goto	l2861
  4423     1713                     l2879:
  4424     1713  303F               	movlw	63
  4425     1714  0506               	andwf	6,w	;volatile
  4426     1715  00F2               	movwf	??_read_digital_keypad
  4427     1716  303F               	movlw	63
  4428     1717  0672               	xorwf	??_read_digital_keypad,w
  4429     1718  1D03               	btfss	3,2
  4430     1719  2F1B               	goto	u2101
  4431     171A  2F1C               	goto	u2100
  4432     171B                     u2101:
  4433     171B  2F1E               	goto	l2883
  4434     171C                     u2100:
  4435     171C                     l2881:
  4436                           
  4437                           ;digital_keypad.c: 37:         {;digital_keypad.c: 38:             once = 1;
  4438     171C  01EC               	clrf	read_digital_keypad@once
  4439     171D  0AEC               	incf	read_digital_keypad@once,f
  4440     171E                     l2883:
  4441                           
  4442                           ;digital_keypad.c: 42:     return 0x3F;
  4443     171E  303F               	movlw	63
  4444     171F                     l138:
  4445     171F  0008               	return
  4446     1720                     __end_of_read_digital_keypad:
  4447                           
  4448                           	psect	text7
  4449     15B7                     __ptext7:	
  4450 ;; *************** function _read_adc *****************
  4451 ;; Defined at:
  4452 ;;		line 21 in file "adc.c"
  4453 ;; Parameters:    Size  Location     Type
  4454 ;;		None
  4455 ;; Auto vars:     Size  Location     Type
  4456 ;;  adc_reg_val     2    4[COMMON] unsigned short 
  4457 ;; Return value:  Size  Location     Type
  4458 ;;                  2    2[COMMON] unsigned short 
  4459 ;; Registers used:
  4460 ;;		wreg
  4461 ;; Tracked objects:
  4462 ;;		On entry : 0/0
  4463 ;;		On exit  : 0/0
  4464 ;;		Unchanged: 0/0
  4465 ;; Data sizes:     COMMON   BANK0   BANK1   BANK3   BANK2
  4466 ;;      Params:         2       0       0       0       0
  4467 ;;      Locals:         2       0       0       0       0
  4468 ;;      Temps:          0       0       0       0       0
  4469 ;;      Totals:         4       0       0       0       0
  4470 ;;Total ram usage:        4 bytes
  4471 ;; Hardware stack levels used: 1
  4472 ;; Hardware stack levels required when called: 1
  4473 ;; This function calls:
  4474 ;;		Nothing
  4475 ;; This function is called by:
  4476 ;;		_main
  4477 ;; This function uses a non-reentrant model
  4478 ;;
  4479                           
  4480     15B7                     _read_adc:	
  4481                           ;psect for function _read_adc
  4482                           
  4483     15B7                     l2853:	
  4484                           ;incstack = 0
  4485                           ; Regs used in _read_adc: [wreg]
  4486                           
  4487                           
  4488                           ;adc.c: 23:     unsigned short adc_reg_val;;adc.c: 26:     GO = 1;
  4489     15B7  1283               	bcf	3,5	;RP0=0, select bank0
  4490     15B8  1303               	bcf	3,6	;RP1=0, select bank0
  4491     15B9  151F               	bsf	31,2	;volatile
  4492     15BA                     l160:	
  4493                           ;adc.c: 29:     while (nDONE);
  4494                           
  4495     15BA  191F               	btfsc	31,2	;volatile
  4496     15BB  2DBD               	goto	u2061
  4497     15BC  2DBE               	goto	u2060
  4498     15BD                     u2061:
  4499     15BD  2DBA               	goto	l160
  4500     15BE                     u2060:
  4501     15BE                     l2855:
  4502                           
  4503                           ;adc.c: 32:     adc_reg_val = (ADRESH << 8) | ADRESL;
  4504     15BE  081E               	movf	30,w	;volatile
  4505     15BF  00F5               	movwf	read_adc@adc_reg_val+1
  4506     15C0  1683               	bsf	3,5	;RP0=1, select bank1
  4507     15C1  1303               	bcf	3,6	;RP1=0, select bank1
  4508     15C2  081E               	movf	30,w	;volatile
  4509     15C3  00F4               	movwf	read_adc@adc_reg_val
  4510                           
  4511                           ;adc.c: 34:     return adc_reg_val;
  4512     15C4  0875               	movf	read_adc@adc_reg_val+1,w
  4513     15C5  00F3               	movwf	?_read_adc+1
  4514     15C6  0874               	movf	read_adc@adc_reg_val,w
  4515     15C7  00F2               	movwf	?_read_adc
  4516     15C8                     l163:
  4517     15C8  0008               	return
  4518     15C9                     __end_of_read_adc:
  4519                           
  4520                           	psect	text8
  4521     056D                     __ptext8:	
  4522 ;; *************** function _login *****************
  4523 ;; Defined at:
  4524 ;;		line 76 in file "c_b_b.c"
  4525 ;; Parameters:    Size  Location     Type
  4526 ;;  reset           1    wreg     PTR unsigned char 
  4527 ;;		 -> main@reset(1), 
  4528 ;;  key             1    2[BANK0 ] unsigned char 
  4529 ;; Auto vars:     Size  Location     Type
  4530 ;;  reset           1    8[BANK0 ] PTR unsigned char 
  4531 ;;		 -> main@reset(1), 
  4532 ;;  j               2    6[BANK0 ] int 
  4533 ;; Return value:  Size  Location     Type
  4534 ;;                  1    wreg      unsigned char 
  4535 ;; Registers used:
  4536 ;;		wreg, fsr0l, fsr0h, status,2, status,0, btemp+1, pclath, cstack
  4537 ;; Tracked objects:
  4538 ;;		On entry : 0/0
  4539 ;;		On exit  : 0/0
  4540 ;;		Unchanged: 0/0
  4541 ;; Data sizes:     COMMON   BANK0   BANK1   BANK3   BANK2
  4542 ;;      Params:         0       1       0       0       0
  4543 ;;      Locals:         0       3       0       0       0
  4544 ;;      Temps:          0       3       0       0       0
  4545 ;;      Totals:         0       7       0       0       0
  4546 ;;Total ram usage:        7 bytes
  4547 ;; Hardware stack levels used: 1
  4548 ;; Hardware stack levels required when called: 5
  4549 ;; This function calls:
  4550 ;;		___awdiv
  4551 ;;		___awmod
  4552 ;;		_clcd_print
  4553 ;;		_clcd_putch
  4554 ;;		_clear_display
  4555 ;;		_cursor_off
  4556 ;;		_eeprom_at24C04_read
  4557 ;;		_login_screen
  4558 ;;		_strncmp
  4559 ;; This function is called by:
  4560 ;;		_main
  4561 ;; This function uses a non-reentrant model
  4562 ;;
  4563                           
  4564     056D                     _login:	
  4565                           ;psect for function _login
  4566                           
  4567                           
  4568                           ;incstack = 0
  4569                           ; Regs used in _login: [wreg-fsr0h+status,2+status,0+btemp+1+pclath+cstack]
  4570                           ;login@reset stored from wreg
  4571     056D  1283               	bcf	3,5	;RP0=0, select bank0
  4572     056E  1303               	bcf	3,6	;RP1=0, select bank0
  4573     056F  00A8               	movwf	login@reset
  4574     0570                     l4081:
  4575                           
  4576                           ;c_b_b.c: 76: char login(unsigned char *reset, unsigned char key);c_b_b.c: 77: {;c_b_b.c
      +                          : 78:     static unsigned char attempts = 3 , upassword[4] , spassword[4] , i;;c_b_b.c: 
      +                          79:     if(*reset == 0x0A)
  4577     0570  0828               	movf	login@reset,w
  4578     0571  0084               	movwf	4
  4579     0572  300A               	movlw	10
  4580     0573  1383               	bcf	3,7	;select IRP bank0
  4581     0574  0600               	xorwf	0,w
  4582     0575  1D03               	btfss	3,2
  4583     0576  2D78               	goto	u3501
  4584     0577  2D79               	goto	u3500
  4585     0578                     u3501:
  4586     0578  2D86               	goto	l4091
  4587     0579                     u3500:
  4588     0579                     l4083:
  4589                           
  4590                           ;c_b_b.c: 80:     {;c_b_b.c: 81:         upassword[0] = '\0';
  4591     0579  01E7               	clrf	login@upassword
  4592                           
  4593                           ;c_b_b.c: 82:         upassword[1] = '\0';
  4594     057A  01E8               	clrf	login@upassword+1
  4595                           
  4596                           ;c_b_b.c: 83:         upassword[2] = '\0';
  4597     057B  01E9               	clrf	login@upassword+2
  4598                           
  4599                           ;c_b_b.c: 84:         upassword[3] = '\0';
  4600     057C  01EA               	clrf	login@upassword+3
  4601                           
  4602                           ;c_b_b.c: 85:         i = 0;
  4603     057D  01DA               	clrf	login@i
  4604     057E                     l4085:
  4605                           
  4606                           ;c_b_b.c: 86:         key = 0xFF;
  4607     057E  30FF               	movlw	255
  4608     057F  00A2               	movwf	login@key
  4609     0580                     l4087:
  4610                           
  4611                           ;c_b_b.c: 87:         *reset = 0x0B;
  4612     0580  0828               	movf	login@reset,w
  4613     0581  0084               	movwf	4
  4614     0582  300B               	movlw	11
  4615     0583  0080               	movwf	0
  4616     0584                     l4089:
  4617                           
  4618                           ;c_b_b.c: 88:         return_time = 5;
  4619     0584  3005               	movlw	5
  4620     0585  00DB               	movwf	_return_time
  4621     0586                     l4091:
  4622                           
  4623                           ;c_b_b.c: 90:     if(key == 0x37 && i<4)
  4624     0586  3037               	movlw	55
  4625     0587  0622               	xorwf	login@key,w
  4626     0588  1D03               	btfss	3,2
  4627     0589  2D8B               	goto	u3511
  4628     058A  2D8C               	goto	u3510
  4629     058B                     u3511:
  4630     058B  2DA9               	goto	l4103
  4631     058C                     u3510:
  4632     058C                     l4093:
  4633     058C  3004               	movlw	4
  4634     058D  025A               	subwf	login@i,w
  4635     058E  1803               	skipnc
  4636     058F  2D91               	goto	u3521
  4637     0590  2D92               	goto	u3520
  4638     0591                     u3521:
  4639     0591  2DA9               	goto	l4103
  4640     0592                     u3520:
  4641     0592                     l4095:
  4642                           
  4643                           ;c_b_b.c: 91:     {;c_b_b.c: 92:         return_time = 5;
  4644     0592  3005               	movlw	5
  4645     0593  00DB               	movwf	_return_time
  4646     0594                     l4097:
  4647                           
  4648                           ;c_b_b.c: 93:         upassword[i] = '0';
  4649     0594  085A               	movf	login@i,w
  4650     0595  3E67               	addlw	(low (login@upassword| 0))& (0+255)
  4651     0596  0084               	movwf	4
  4652     0597  3030               	movlw	48
  4653     0598  0080               	movwf	0
  4654     0599                     l4099:
  4655                           
  4656                           ;c_b_b.c: 94:         clcd_putch('*', (0xC0 + 6+i));
  4657     0599  085A               	movf	login@i,w
  4658     059A  3EC6               	addlw	198
  4659     059B  00A0               	movwf	clcd_putch@addr
  4660     059C  302A               	movlw	42
  4661     059D  160A  118A  25EF  120A  118A  	fcall	_clcd_putch
  4662     05A2                     l4101:
  4663                           
  4664                           ;c_b_b.c: 95:         i++;
  4665     05A2  3001               	movlw	1
  4666     05A3  00FF               	movwf	btemp+1
  4667     05A4  087F               	movf	btemp+1,w
  4668     05A5  1283               	bcf	3,5	;RP0=0, select bank0
  4669     05A6  1303               	bcf	3,6	;RP1=0, select bank0
  4670     05A7  07DA               	addwf	login@i,f
  4671                           
  4672                           ;c_b_b.c: 96:     }
  4673     05A8  2DC6               	goto	l4115
  4674     05A9                     l4103:
  4675     05A9  302F               	movlw	47
  4676     05AA  0622               	xorwf	login@key,w
  4677     05AB  1D03               	btfss	3,2
  4678     05AC  2DAE               	goto	u3531
  4679     05AD  2DAF               	goto	u3530
  4680     05AE                     u3531:
  4681     05AE  2DC6               	goto	l4115
  4682     05AF                     u3530:
  4683     05AF                     l4105:
  4684     05AF  3004               	movlw	4
  4685     05B0  025A               	subwf	login@i,w
  4686     05B1  1803               	skipnc
  4687     05B2  2DB4               	goto	u3541
  4688     05B3  2DB5               	goto	u3540
  4689     05B4                     u3541:
  4690     05B4  2DC6               	goto	l4115
  4691     05B5                     u3540:
  4692     05B5                     l4107:
  4693                           
  4694                           ;c_b_b.c: 98:     {;c_b_b.c: 99:         return_time = 5;
  4695     05B5  3005               	movlw	5
  4696     05B6  00DB               	movwf	_return_time
  4697     05B7                     l4109:
  4698                           
  4699                           ;c_b_b.c: 100:         upassword[i] = '1';
  4700     05B7  085A               	movf	login@i,w
  4701     05B8  3E67               	addlw	(low (login@upassword| 0))& (0+255)
  4702     05B9  0084               	movwf	4
  4703     05BA  3031               	movlw	49
  4704     05BB  0080               	movwf	0
  4705     05BC                     l4111:
  4706                           
  4707                           ;c_b_b.c: 101:         clcd_putch('*' , (0xC0 + 6+i));
  4708     05BC  085A               	movf	login@i,w
  4709     05BD  3EC6               	addlw	198
  4710     05BE  00A0               	movwf	clcd_putch@addr
  4711     05BF  302A               	movlw	42
  4712     05C0  160A  118A  25EF  120A  118A  	fcall	_clcd_putch
  4713     05C5  2DA2               	goto	l4101
  4714     05C6                     l4115:
  4715                           
  4716                           ;c_b_b.c: 104:     if(return_time == 0)
  4717     05C6  085B               	movf	_return_time,w
  4718     05C7  1D03               	btfss	3,2
  4719     05C8  2DCA               	goto	u3551
  4720     05C9  2DCB               	goto	u3550
  4721     05CA                     u3551:
  4722     05CA  2DDE               	goto	l4125
  4723     05CB                     u3550:
  4724     05CB                     l4117:
  4725                           
  4726                           ;c_b_b.c: 105:     {;c_b_b.c: 106:         cursor_off();
  4727     05CB  160A  118A  257F  120A  118A  	fcall	_cursor_off
  4728                           
  4729                           ;c_b_b.c: 107:         clear_display();
  4730     05D0  160A  118A  25A6  120A  118A  	fcall	_clear_display
  4731     05D5                     l4119:
  4732                           
  4733                           ;c_b_b.c: 108:         *reset = 0x0A;
  4734     05D5  1283               	bcf	3,5	;RP0=0, select bank0
  4735     05D6  1303               	bcf	3,6	;RP1=0, select bank0
  4736     05D7  0828               	movf	login@reset,w
  4737     05D8  0084               	movwf	4
  4738     05D9  300A               	movlw	10
  4739     05DA  1383               	bcf	3,7	;select IRP bank0
  4740     05DB  0080               	movwf	0
  4741     05DC                     l4121:
  4742                           
  4743                           ;c_b_b.c: 109:         return 0x00;
  4744     05DC  3000               	movlw	0
  4745     05DD  2ED7               	goto	l346
  4746     05DE                     l4125:
  4747                           
  4748                           ;c_b_b.c: 111:     if(i==4 )
  4749     05DE  3004               	movlw	4
  4750     05DF  065A               	xorwf	login@i,w
  4751     05E0  1D03               	btfss	3,2
  4752     05E1  2DE3               	goto	u3561
  4753     05E2  2DE4               	goto	u3560
  4754     05E3                     u3561:
  4755     05E3  2ED7               	goto	l346
  4756     05E4                     u3560:
  4757     05E4                     l4127:
  4758                           
  4759                           ;c_b_b.c: 112:     {;c_b_b.c: 113:         for(int j = 0; j< 4 ; j++)
  4760     05E4  01A6               	clrf	login@j
  4761     05E5  01A7               	clrf	login@j+1
  4762     05E6                     l4133:
  4763                           
  4764                           ;c_b_b.c: 114:         {;c_b_b.c: 115:             spassword[j] = eeprom_at24C04_read(j)
      +                          ;
  4765     05E6  1283               	bcf	3,5	;RP0=0, select bank0
  4766     05E7  1303               	bcf	3,6	;RP1=0, select bank0
  4767     05E8  0826               	movf	login@j,w
  4768     05E9  3ECD               	addlw	(low (login@spassword| 0))& (0+255)
  4769     05EA  0084               	movwf	4
  4770     05EB  0826               	movf	login@j,w
  4771     05EC  160A  118A  274B  120A  118A  	fcall	_eeprom_at24C04_read
  4772     05F1  1383               	bcf	3,7	;select IRP bank1
  4773     05F2  0080               	movwf	0
  4774     05F3                     l4135:
  4775                           
  4776                           ;c_b_b.c: 116:         }
  4777     05F3  3001               	movlw	1
  4778     05F4  1283               	bcf	3,5	;RP0=0, select bank0
  4779     05F5  1303               	bcf	3,6	;RP1=0, select bank0
  4780     05F6  07A6               	addwf	login@j,f
  4781     05F7  1803               	skipnc
  4782     05F8  0AA7               	incf	login@j+1,f
  4783     05F9  3000               	movlw	0
  4784     05FA  07A7               	addwf	login@j+1,f
  4785     05FB                     l4137:
  4786     05FB  0827               	movf	login@j+1,w
  4787     05FC  3A80               	xorlw	128
  4788     05FD  00FF               	movwf	btemp+1
  4789     05FE  3080               	movlw	128
  4790     05FF  027F               	subwf	btemp+1,w
  4791     0600  1D03               	skipz
  4792     0601  2E04               	goto	u3575
  4793     0602  3004               	movlw	4
  4794     0603  0226               	subwf	login@j,w
  4795     0604                     u3575:
  4796     0604  1C03               	skipc
  4797     0605  2E07               	goto	u3571
  4798     0606  2E08               	goto	u3570
  4799     0607                     u3571:
  4800     0607  2DE6               	goto	l4133
  4801     0608                     u3570:
  4802     0608                     l4139:
  4803                           
  4804                           ;c_b_b.c: 117:         if(strncmp(upassword,spassword,4) == 0)
  4805     0608  30CD               	movlw	(low (login@spassword| 0))& (0+255)
  4806     0609  00F2               	movwf	strncmp@r
  4807     060A  3004               	movlw	4
  4808     060B  00F3               	movwf	strncmp@n
  4809     060C  3000               	movlw	0
  4810     060D  00F4               	movwf	strncmp@n+1
  4811     060E  3067               	movlw	(low (login@upassword| 0))& (0+255)
  4812     060F  120A  158A  222C  120A  118A  	fcall	_strncmp
  4813     0614  0872               	movf	?_strncmp,w
  4814     0615  0473               	iorwf	?_strncmp+1,w
  4815     0616  1D03               	btfss	3,2
  4816     0617  2E19               	goto	u3581
  4817     0618  2E1A               	goto	u3580
  4818     0619                     u3581:
  4819     0619  2E26               	goto	l4149
  4820     061A                     u3580:
  4821     061A                     l4141:
  4822                           
  4823                           ;c_b_b.c: 118:         {;c_b_b.c: 119:             cursor_off();
  4824     061A  160A  118A  257F  120A  118A  	fcall	_cursor_off
  4825                           
  4826                           ;c_b_b.c: 120:             clear_display();
  4827     061F  160A  118A  25A6  120A  118A  	fcall	_clear_display
  4828     0624                     l4143:
  4829                           
  4830                           ;c_b_b.c: 121:             return 0x11;
  4831     0624  3011               	movlw	17
  4832     0625  2ED7               	goto	l346
  4833     0626                     l4149:
  4834                           
  4835                           ;c_b_b.c: 124:         {;c_b_b.c: 125:             attempts--;
  4836     0626  3001               	movlw	1
  4837     0627  1283               	bcf	3,5	;RP0=0, select bank0
  4838     0628  1303               	bcf	3,6	;RP1=0, select bank0
  4839     0629  02EB               	subwf	login@attempts,f
  4840                           
  4841                           ;c_b_b.c: 126:             if(attempts == 0)
  4842     062A  086B               	movf	login@attempts,w
  4843     062B  1D03               	btfss	3,2
  4844     062C  2E2E               	goto	u3591
  4845     062D  2E2F               	goto	u3590
  4846     062E                     u3591:
  4847     062E  2E97               	goto	l4167
  4848     062F                     u3590:
  4849     062F                     l4151:
  4850                           
  4851                           ;c_b_b.c: 127:             {;c_b_b.c: 128:                 clear_display();
  4852     062F  160A  118A  25A6  120A  118A  	fcall	_clear_display
  4853                           
  4854                           ;c_b_b.c: 129:                 cursor_off();
  4855     0634  160A  118A  257F  120A  118A  	fcall	_cursor_off
  4856     0639                     l4153:
  4857                           
  4858                           ;c_b_b.c: 130:                 clcd_print("YOU ARE LOCKED",(0x80 + 0));
  4859     0639  30A7               	movlw	low (STR_17| (0+32768))
  4860     063A  00F6               	movwf	clcd_print@str
  4861     063B  3084               	movlw	high (STR_17| (0+32768))
  4862     063C  00F7               	movwf	clcd_print@str+1
  4863     063D  3080               	movlw	128
  4864     063E  00F8               	movwf	clcd_print@addr
  4865     063F  160A  118A  27A2  120A  118A  	fcall	_clcd_print
  4866     0644                     l4155:
  4867                           
  4868                           ;c_b_b.c: 131:                 clcd_print("WAIT FOR    SEC",(0xC0 + 0));
  4869     0644  3097               	movlw	low (STR_18| (0+32768))
  4870     0645  00F6               	movwf	clcd_print@str
  4871     0646  3084               	movlw	high (STR_18| (0+32768))
  4872     0647  00F7               	movwf	clcd_print@str+1
  4873     0648  30C0               	movlw	192
  4874     0649  00F8               	movwf	clcd_print@addr
  4875     064A  160A  118A  27A2  120A  118A  	fcall	_clcd_print
  4876     064F                     l4157:
  4877                           
  4878                           ;c_b_b.c: 132:                 sec = 60;
  4879     064F  303C               	movlw	60
  4880     0650  1283               	bcf	3,5	;RP0=0, select bank0
  4881     0651  1303               	bcf	3,6	;RP1=0, select bank0
  4882     0652  00DC               	movwf	_sec
  4883                           
  4884                           ;c_b_b.c: 133:                 while(sec)
  4885     0653  2E88               	goto	l4161
  4886     0654                     l4159:
  4887                           
  4888                           ;c_b_b.c: 134:                 {;c_b_b.c: 135:                     clcd_putch(sec/10 + '
      +                          0' , (0xC0 + 9));
  4889     0654  30C9               	movlw	201
  4890     0655  00A0               	movwf	clcd_putch@addr
  4891     0656  300A               	movlw	10
  4892     0657  00F2               	movwf	___awdiv@divisor
  4893     0658  3000               	movlw	0
  4894     0659  00F3               	movwf	___awdiv@divisor+1
  4895     065A  085C               	movf	_sec,w
  4896     065B  00A3               	movwf	??_login
  4897     065C  01A4               	clrf	??_login+1
  4898     065D  0823               	movf	??_login,w
  4899     065E  00F4               	movwf	___awdiv@dividend
  4900     065F  0824               	movf	??_login+1,w
  4901     0660  00F5               	movwf	___awdiv@dividend+1
  4902     0661  120A  158A  239D  120A  118A  	fcall	___awdiv
  4903     0666  0872               	movf	?___awdiv,w
  4904     0667  3E30               	addlw	48
  4905     0668  160A  118A  25EF  120A  118A  	fcall	_clcd_putch
  4906                           
  4907                           ;c_b_b.c: 136:                     clcd_putch(sec%10 + '0', (0xC0 + 10));
  4908     066D  30CA               	movlw	202
  4909     066E  1283               	bcf	3,5	;RP0=0, select bank0
  4910     066F  1303               	bcf	3,6	;RP1=0, select bank0
  4911     0670  00A0               	movwf	clcd_putch@addr
  4912     0671  300A               	movlw	10
  4913     0672  00F2               	movwf	___awmod@divisor
  4914     0673  3000               	movlw	0
  4915     0674  00F3               	movwf	___awmod@divisor+1
  4916     0675  085C               	movf	_sec,w
  4917     0676  00A3               	movwf	??_login
  4918     0677  01A4               	clrf	??_login+1
  4919     0678  0823               	movf	??_login,w
  4920     0679  00F4               	movwf	___awmod@dividend
  4921     067A  0824               	movf	??_login+1,w
  4922     067B  00F5               	movwf	___awmod@dividend+1
  4923     067C  120A  118A  27A7  120A  118A  	fcall	___awmod
  4924     0681  0872               	movf	?___awmod,w
  4925     0682  3E30               	addlw	48
  4926     0683  160A  118A  25EF  120A  118A  	fcall	_clcd_putch
  4927     0688                     l4161:
  4928                           
  4929                           ;c_b_b.c: 133:                 while(sec)
  4930     0688  1283               	bcf	3,5	;RP0=0, select bank0
  4931     0689  1303               	bcf	3,6	;RP1=0, select bank0
  4932     068A  085C               	movf	_sec,w
  4933     068B  1D03               	btfss	3,2
  4934     068C  2E8E               	goto	u3601
  4935     068D  2E8F               	goto	u3600
  4936     068E                     u3601:
  4937     068E  2E54               	goto	l4159
  4938     068F                     u3600:
  4939     068F                     l4163:
  4940                           
  4941                           ;c_b_b.c: 138:                 *reset = 0x0A;
  4942     068F  0828               	movf	login@reset,w
  4943     0690  0084               	movwf	4
  4944     0691  300A               	movlw	10
  4945     0692  1383               	bcf	3,7	;select IRP bank0
  4946     0693  0080               	movwf	0
  4947     0694                     l4165:
  4948                           
  4949                           ;c_b_b.c: 139:                 attempts = 3;
  4950     0694  3003               	movlw	3
  4951     0695  00EB               	movwf	login@attempts
  4952                           
  4953                           ;c_b_b.c: 140:             }
  4954     0696  2ED2               	goto	l4177
  4955     0697                     l4167:
  4956                           
  4957                           ;c_b_b.c: 142:             {;c_b_b.c: 143:                 clear_display();
  4958     0697  160A  118A  25A6  120A  118A  	fcall	_clear_display
  4959     069C                     l4169:
  4960                           
  4961                           ;c_b_b.c: 144:                 clcd_print("WRONG PASS",(0x80 + 0));
  4962     069C  3012               	movlw	low (STR_19| (0+32768))
  4963     069D  00F6               	movwf	clcd_print@str
  4964     069E  3085               	movlw	high (STR_19| (0+32768))
  4965     069F  00F7               	movwf	clcd_print@str+1
  4966     06A0  3080               	movlw	128
  4967     06A1  00F8               	movwf	clcd_print@addr
  4968     06A2  160A  118A  27A2  120A  118A  	fcall	_clcd_print
  4969     06A7                     l4171:
  4970                           
  4971                           ;c_b_b.c: 145:                 clcd_putch(attempts + '0' , (0xC0 + 0));
  4972     06A7  30C0               	movlw	192
  4973     06A8  1283               	bcf	3,5	;RP0=0, select bank0
  4974     06A9  1303               	bcf	3,6	;RP1=0, select bank0
  4975     06AA  00A0               	movwf	clcd_putch@addr
  4976     06AB  086B               	movf	login@attempts,w
  4977     06AC  3E30               	addlw	48
  4978     06AD  160A  118A  25EF  120A  118A  	fcall	_clcd_putch
  4979                           
  4980                           ;c_b_b.c: 146:                 clcd_print("ATTEMPTS LEFT" , (0xC0 + 2));
  4981     06B2  30D3               	movlw	low (STR_20| (0+32768))
  4982     06B3  00F6               	movwf	clcd_print@str
  4983     06B4  3084               	movlw	high (STR_20| (0+32768))
  4984     06B5  00F7               	movwf	clcd_print@str+1
  4985     06B6  30C2               	movlw	194
  4986     06B7  00F8               	movwf	clcd_print@addr
  4987     06B8  160A  118A  27A2  120A  118A  	fcall	_clcd_print
  4988     06BD                     l4173:
  4989                           
  4990                           ;c_b_b.c: 147:                 _delay((unsigned long)((3000)*(20000000/4000.0)));
  4991     06BD  304D               	movlw	77
  4992     06BE  1283               	bcf	3,5	;RP0=0, select bank0
  4993     06BF  1303               	bcf	3,6	;RP1=0, select bank0
  4994     06C0  00A5               	movwf	??_login+2
  4995     06C1  3019               	movlw	25
  4996     06C2  00A4               	movwf	??_login+1
  4997     06C3  304F               	movlw	79
  4998     06C4  00A3               	movwf	??_login
  4999     06C5                     u4277:
  5000     06C5  0BA3               	decfsz	??_login,f
  5001     06C6  2EC5               	goto	u4277
  5002     06C7  0BA4               	decfsz	??_login+1,f
  5003     06C8  2EC5               	goto	u4277
  5004     06C9  0BA5               	decfsz	??_login+2,f
  5005     06CA  2EC5               	goto	u4277
  5006     06CB                     l4175:
  5007                           
  5008                           ;c_b_b.c: 148:                 *reset = 0x0A;
  5009     06CB  1283               	bcf	3,5	;RP0=0, select bank0
  5010     06CC  1303               	bcf	3,6	;RP1=0, select bank0
  5011     06CD  0828               	movf	login@reset,w
  5012     06CE  0084               	movwf	4
  5013     06CF  300A               	movlw	10
  5014     06D0  1383               	bcf	3,7	;select IRP bank0
  5015     06D1  0080               	movwf	0
  5016     06D2                     l4177:
  5017                           
  5018                           ;c_b_b.c: 150:             login_screen();
  5019     06D2  160A  118A  2604  120A  118A  	fcall	_login_screen
  5020     06D7                     l346:
  5021     06D7  0008               	return
  5022     06D8                     __end_of_login:
  5023                           
  5024                           	psect	text9
  5025     1604                     __ptext9:	
  5026 ;; *************** function _login_screen *****************
  5027 ;; Defined at:
  5028 ;;		line 70 in file "c_b_b.c"
  5029 ;; Parameters:    Size  Location     Type
  5030 ;;		None
  5031 ;; Auto vars:     Size  Location     Type
  5032 ;;		None
  5033 ;; Return value:  Size  Location     Type
  5034 ;;                  1    wreg      void 
  5035 ;; Registers used:
  5036 ;;		wreg, fsr0l, fsr0h, status,2, status,0, btemp+1, pclath, cstack
  5037 ;; Tracked objects:
  5038 ;;		On entry : 0/0
  5039 ;;		On exit  : 0/0
  5040 ;;		Unchanged: 0/0
  5041 ;; Data sizes:     COMMON   BANK0   BANK1   BANK3   BANK2
  5042 ;;      Params:         0       0       0       0       0
  5043 ;;      Locals:         0       0       0       0       0
  5044 ;;      Temps:          0       0       0       0       0
  5045 ;;      Totals:         0       0       0       0       0
  5046 ;;Total ram usage:        0 bytes
  5047 ;; Hardware stack levels used: 1
  5048 ;; Hardware stack levels required when called: 3
  5049 ;; This function calls:
  5050 ;;		_clcd_print
  5051 ;;		_clear_display
  5052 ;;		_cursor_on
  5053 ;; This function is called by:
  5054 ;;		_main
  5055 ;;		_login
  5056 ;; This function uses a non-reentrant model
  5057 ;;
  5058                           
  5059     1604                     _login_screen:	
  5060                           ;psect for function _login_screen
  5061                           
  5062     1604                     l3827:	
  5063                           ;incstack = 0
  5064                           ; Regs used in _login_screen: [wreg-fsr0h+status,2+status,0+btemp+1+pclath+cstack]
  5065                           
  5066                           
  5067                           ;c_b_b.c: 72:     clear_display();
  5068     1604  160A  118A  25A6  160A  118A  	fcall	_clear_display
  5069     1609                     l3829:
  5070                           
  5071                           ;c_b_b.c: 73:     clcd_print("ENTER THE PASS :",(0x80 + 0));
  5072     1609  3000               	movlw	low (STR_16| (0+32768))
  5073     160A  00F6               	movwf	clcd_print@str
  5074     160B  3084               	movlw	high (STR_16| (0+32768))
  5075     160C  00F7               	movwf	clcd_print@str+1
  5076     160D  3080               	movlw	128
  5077     160E  00F8               	movwf	clcd_print@addr
  5078     160F  160A  118A  27A2  160A  118A  	fcall	_clcd_print
  5079     1614                     l3831:
  5080                           
  5081                           ;c_b_b.c: 74:     cursor_on(0xC6);
  5082     1614  30C6               	movlw	198
  5083     1615  160A  118A  261B  160A  118A  	fcall	_cursor_on
  5084     161A                     l330:
  5085     161A  0008               	return
  5086     161B                     __end_of_login_screen:
  5087                           
  5088                           	psect	text10
  5089     0A7C                     __ptext10:	
  5090 ;; *************** function _log_event *****************
  5091 ;; Defined at:
  5092 ;;		line 54 in file "c_b_b.c"
  5093 ;; Parameters:    Size  Location     Type
  5094 ;;  event           1    wreg     PTR unsigned char 
  5095 ;;		 -> main@event(3), 
  5096 ;;  speed           1    0[BANK0 ] unsigned char 
  5097 ;; Auto vars:     Size  Location     Type
  5098 ;;  event           1    3[BANK0 ] PTR unsigned char 
  5099 ;;		 -> main@event(3), 
  5100 ;; Return value:  Size  Location     Type
  5101 ;;                  1    wreg      void 
  5102 ;; Registers used:
  5103 ;;		wreg, fsr0l, fsr0h, status,2, status,0, btemp+1, pclath, cstack
  5104 ;; Tracked objects:
  5105 ;;		On entry : 0/0
  5106 ;;		On exit  : 0/0
  5107 ;;		Unchanged: 0/0
  5108 ;; Data sizes:     COMMON   BANK0   BANK1   BANK3   BANK2
  5109 ;;      Params:         0       1       0       0       0
  5110 ;;      Locals:         0       1       0       0       0
  5111 ;;      Temps:          0       2       0       0       0
  5112 ;;      Totals:         0       4       0       0       0
  5113 ;;Total ram usage:        4 bytes
  5114 ;; Hardware stack levels used: 1
  5115 ;; Hardware stack levels required when called: 6
  5116 ;; This function calls:
  5117 ;;		___awdiv
  5118 ;;		___awmod
  5119 ;;		_get_time
  5120 ;;		_log_event_write
  5121 ;; This function is called by:
  5122 ;;		_main
  5123 ;; This function uses a non-reentrant model
  5124 ;;
  5125                           
  5126     0A7C                     _log_event:	
  5127                           ;psect for function _log_event
  5128                           
  5129                           
  5130                           ;incstack = 0
  5131                           ; Regs used in _log_event: [wreg-fsr0h+status,2+status,0+btemp+1+pclath+cstack]
  5132                           ;log_event@event stored from wreg
  5133     0A7C  1283               	bcf	3,5	;RP0=0, select bank0
  5134     0A7D  1303               	bcf	3,6	;RP1=0, select bank0
  5135     0A7E  00A3               	movwf	log_event@event
  5136     0A7F                     l4009:
  5137                           
  5138                           ;c_b_b.c: 54: void log_event(unsigned char *event,unsigned char speed);c_b_b.c: 55: {;c_
      +                          b_b.c: 56:     get_time();
  5139     0A7F  120A  158A  2404  120A  158A  	fcall	_get_time
  5140     0A84                     l4011:
  5141                           
  5142                           ;c_b_b.c: 57:     log[0] = time[0];
  5143     0A84  1683               	bsf	3,5	;RP0=1, select bank1
  5144     0A85  1303               	bcf	3,6	;RP1=0, select bank1
  5145     0A86  083C               	movf	_time^(0+128),w
  5146     0A87  00B1               	movwf	_log^(0+128)
  5147     0A88                     l4013:
  5148                           
  5149                           ;c_b_b.c: 58:     log[1] = time[1];
  5150     0A88  083D               	movf	(_time^(0+128)+1),w
  5151     0A89  00B2               	movwf	(_log^(0+128)+1)
  5152     0A8A                     l4015:
  5153                           
  5154                           ;c_b_b.c: 59:     log[2] = time[3];
  5155     0A8A  083F               	movf	(_time^(0+128)+3),w
  5156     0A8B  00B3               	movwf	(_log^(0+128)+2)
  5157     0A8C                     l4017:
  5158                           
  5159                           ;c_b_b.c: 60:     log[3] = time[4];
  5160     0A8C  0840               	movf	(_time^(0+128)+4),w
  5161     0A8D  00B4               	movwf	(_log^(0+128)+3)
  5162     0A8E                     l4019:
  5163                           
  5164                           ;c_b_b.c: 61:     log[4] = time[6];
  5165     0A8E  0842               	movf	(_time^(0+128)+6),w
  5166     0A8F  00B5               	movwf	(_log^(0+128)+4)
  5167     0A90                     l4021:
  5168                           
  5169                           ;c_b_b.c: 62:     log[5] = time[7];
  5170     0A90  0843               	movf	(_time^(0+128)+7),w
  5171     0A91  00B6               	movwf	(_log^(0+128)+5)
  5172     0A92                     l4023:
  5173                           
  5174                           ;c_b_b.c: 63:     log[6] = event[0];
  5175     0A92  1283               	bcf	3,5	;RP0=0, select bank0
  5176     0A93  1303               	bcf	3,6	;RP1=0, select bank0
  5177     0A94  0823               	movf	log_event@event,w
  5178     0A95  0084               	movwf	4
  5179     0A96  1383               	bcf	3,7	;select IRP bank0
  5180     0A97  0800               	movf	0,w
  5181     0A98  1683               	bsf	3,5	;RP0=1, select bank1
  5182     0A99  1303               	bcf	3,6	;RP1=0, select bank1
  5183     0A9A  00B7               	movwf	(_log^(0+128)+6)
  5184     0A9B                     l4025:
  5185                           
  5186                           ;c_b_b.c: 64:     log[7] = event[1];
  5187     0A9B  1283               	bcf	3,5	;RP0=0, select bank0
  5188     0A9C  1303               	bcf	3,6	;RP1=0, select bank0
  5189     0A9D  0A23               	incf	log_event@event,w
  5190     0A9E  0084               	movwf	4
  5191     0A9F  0800               	movf	0,w
  5192     0AA0  1683               	bsf	3,5	;RP0=1, select bank1
  5193     0AA1  1303               	bcf	3,6	;RP1=0, select bank1
  5194     0AA2  00B8               	movwf	(_log^(0+128)+7)
  5195     0AA3                     l4027:
  5196                           
  5197                           ;c_b_b.c: 65:     log[8] = (speed/10) + '0';
  5198     0AA3  300A               	movlw	10
  5199     0AA4  00F2               	movwf	___awdiv@divisor
  5200     0AA5  3000               	movlw	0
  5201     0AA6  00F3               	movwf	___awdiv@divisor+1
  5202     0AA7  1283               	bcf	3,5	;RP0=0, select bank0
  5203     0AA8  1303               	bcf	3,6	;RP1=0, select bank0
  5204     0AA9  0820               	movf	log_event@speed,w
  5205     0AAA  00A1               	movwf	??_log_event
  5206     0AAB  01A2               	clrf	??_log_event+1
  5207     0AAC  0821               	movf	??_log_event,w
  5208     0AAD  00F4               	movwf	___awdiv@dividend
  5209     0AAE  0822               	movf	??_log_event+1,w
  5210     0AAF  00F5               	movwf	___awdiv@dividend+1
  5211     0AB0  120A  158A  239D  120A  158A  	fcall	___awdiv
  5212     0AB5  0872               	movf	?___awdiv,w
  5213     0AB6  3E30               	addlw	48
  5214     0AB7  1683               	bsf	3,5	;RP0=1, select bank1
  5215     0AB8  1303               	bcf	3,6	;RP1=0, select bank1
  5216     0AB9  00B9               	movwf	(_log^(0+128)+8)
  5217     0ABA                     l4029:
  5218                           
  5219                           ;c_b_b.c: 66:     log[9] = (speed%10) + '0';
  5220     0ABA  300A               	movlw	10
  5221     0ABB  00F2               	movwf	___awmod@divisor
  5222     0ABC  3000               	movlw	0
  5223     0ABD  00F3               	movwf	___awmod@divisor+1
  5224     0ABE  1283               	bcf	3,5	;RP0=0, select bank0
  5225     0ABF  1303               	bcf	3,6	;RP1=0, select bank0
  5226     0AC0  0820               	movf	log_event@speed,w
  5227     0AC1  00A1               	movwf	??_log_event
  5228     0AC2  01A2               	clrf	??_log_event+1
  5229     0AC3  0821               	movf	??_log_event,w
  5230     0AC4  00F4               	movwf	___awmod@dividend
  5231     0AC5  0822               	movf	??_log_event+1,w
  5232     0AC6  00F5               	movwf	___awmod@dividend+1
  5233     0AC7  120A  118A  27A7  120A  158A  	fcall	___awmod
  5234     0ACC  0872               	movf	?___awmod,w
  5235     0ACD  3E30               	addlw	48
  5236     0ACE  1683               	bsf	3,5	;RP0=1, select bank1
  5237     0ACF  1303               	bcf	3,6	;RP1=0, select bank1
  5238     0AD0  00BA               	movwf	(_log^(0+128)+9)
  5239     0AD1                     l4031:
  5240                           
  5241                           ;c_b_b.c: 67:     log[10]= '\0';
  5242     0AD1  01BB               	clrf	(_log^(0+128)+10)
  5243     0AD2                     l4033:
  5244                           
  5245                           ;c_b_b.c: 68:     log_event_write();
  5246     0AD2  120A  158A  215B  120A  158A  	fcall	_log_event_write
  5247     0AD7                     l327:
  5248     0AD7  0008               	return
  5249     0AD8                     __end_of_log_event:
  5250                           
  5251                           	psect	text11
  5252     095B                     __ptext11:	
  5253 ;; *************** function _log_event_write *****************
  5254 ;; Defined at:
  5255 ;;		line 42 in file "c_b_b.c"
  5256 ;; Parameters:    Size  Location     Type
  5257 ;;		None
  5258 ;; Auto vars:     Size  Location     Type
  5259 ;;  addr            1    9[COMMON] unsigned char 
  5260 ;; Return value:  Size  Location     Type
  5261 ;;                  1    wreg      void 
  5262 ;; Registers used:
  5263 ;;		wreg, fsr0l, fsr0h, status,2, status,0, btemp+1, pclath, cstack
  5264 ;; Tracked objects:
  5265 ;;		On entry : 0/0
  5266 ;;		On exit  : 0/0
  5267 ;;		Unchanged: 0/0
  5268 ;; Data sizes:     COMMON   BANK0   BANK1   BANK3   BANK2
  5269 ;;      Params:         0       0       0       0       0
  5270 ;;      Locals:         1       0       0       0       0
  5271 ;;      Temps:          0       0       0       0       0
  5272 ;;      Totals:         1       0       0       0       0
  5273 ;;Total ram usage:        1 bytes
  5274 ;; Hardware stack levels used: 1
  5275 ;; Hardware stack levels required when called: 5
  5276 ;; This function calls:
  5277 ;;		___bmul
  5278 ;;		_eeprom_at24C04_str_write
  5279 ;; This function is called by:
  5280 ;;		_log_event
  5281 ;; This function uses a non-reentrant model
  5282 ;;
  5283                           
  5284     095B                     _log_event_write:	
  5285                           ;psect for function _log_event_write
  5286                           
  5287     095B                     l3859:	
  5288                           ;incstack = 0
  5289                           ; Regs used in _log_event_write: [wreg-fsr0h+status,2+status,0+btemp+1+pclath+cstack]
  5290                           
  5291                           
  5292                           ;c_b_b.c: 44:     unsigned char addr = 0x05;
  5293     095B  3005               	movlw	5
  5294     095C  00F9               	movwf	log_event_write@addr
  5295                           
  5296                           ;c_b_b.c: 45:     pos++;
  5297     095D  3001               	movlw	1
  5298     095E  1283               	bcf	3,5	;RP0=0, select bank0
  5299     095F  1303               	bcf	3,6	;RP1=0, select bank0
  5300     0960  07EE               	addwf	_pos,f
  5301     0961  1803               	skipnc
  5302     0962  0AEF               	incf	_pos+1,f
  5303     0963  3000               	movlw	0
  5304     0964  07EF               	addwf	_pos+1,f
  5305     0965                     l3861:
  5306                           
  5307                           ;c_b_b.c: 46:     if(pos == 10)
  5308     0965  300A               	movlw	10
  5309     0966  066E               	xorwf	_pos,w
  5310     0967  046F               	iorwf	_pos+1,w
  5311     0968  1D03               	btfss	3,2
  5312     0969  296B               	goto	u3251
  5313     096A  296C               	goto	u3250
  5314     096B                     u3251:
  5315     096B  296E               	goto	l3865
  5316     096C                     u3250:
  5317     096C                     l3863:
  5318                           
  5319                           ;c_b_b.c: 47:         pos = 0;
  5320     096C  01EE               	clrf	_pos
  5321     096D  01EF               	clrf	_pos+1
  5322     096E                     l3865:
  5323                           
  5324                           ;c_b_b.c: 48:     addr += (pos*10);
  5325     096E  300A               	movlw	10
  5326     096F  00F2               	movwf	___bmul@multiplicand
  5327     0970  086E               	movf	_pos,w
  5328     0971  120A  158A  2000  120A  158A  	fcall	___bmul
  5329     0976  00FF               	movwf	btemp+1
  5330     0977  087F               	movf	btemp+1,w
  5331     0978  07F9               	addwf	log_event_write@addr,f
  5332     0979                     l3867:
  5333                           
  5334                           ;c_b_b.c: 49:     if(event < 10 )
  5335     0979  087B               	movf	_event+1,w
  5336     097A  3A80               	xorlw	128
  5337     097B  00FF               	movwf	btemp+1
  5338     097C  3080               	movlw	128
  5339     097D  027F               	subwf	btemp+1,w
  5340     097E  1D03               	skipz
  5341     097F  2982               	goto	u3265
  5342     0980  300A               	movlw	10
  5343     0981  027A               	subwf	_event,w
  5344     0982                     u3265:
  5345     0982  1803               	skipnc
  5346     0983  2985               	goto	u3261
  5347     0984  2986               	goto	u3260
  5348     0985                     u3261:
  5349     0985  298C               	goto	l3871
  5350     0986                     u3260:
  5351     0986                     l3869:
  5352                           
  5353                           ;c_b_b.c: 50:         event++;
  5354     0986  3001               	movlw	1
  5355     0987  07FA               	addwf	_event,f
  5356     0988  1803               	skipnc
  5357     0989  0AFB               	incf	_event+1,f
  5358     098A  3000               	movlw	0
  5359     098B  07FB               	addwf	_event+1,f
  5360     098C                     l3871:
  5361                           
  5362                           ;c_b_b.c: 51:     eeprom_at24C04_str_write(addr, log);
  5363     098C  30B1               	movlw	(low (_log| 0))& (0+255)
  5364     098D  00F5               	movwf	eeprom_at24C04_str_write@str
  5365     098E  3000               	movlw	0
  5366     098F  00F6               	movwf	eeprom_at24C04_str_write@str+1
  5367     0990  0879               	movf	log_event_write@addr,w
  5368     0991  160A  118A  27D1  120A  158A  	fcall	_eeprom_at24C04_str_write
  5369     0996                     l324:
  5370     0996  0008               	return
  5371     0997                     __end_of_log_event_write:
  5372                           
  5373                           	psect	text12
  5374     17D1                     __ptext12:	
  5375 ;; *************** function _eeprom_at24C04_str_write *****************
  5376 ;; Defined at:
  5377 ;;		line 38 in file "EEprom.c"
  5378 ;; Parameters:    Size  Location     Type
  5379 ;;  addr            1    wreg     unsigned char 
  5380 ;;  str             2    5[COMMON] PTR unsigned char 
  5381 ;;		 -> log(11), STR_8(5), 
  5382 ;; Auto vars:     Size  Location     Type
  5383 ;;  addr            1    7[COMMON] unsigned char 
  5384 ;;  i               1    8[COMMON] unsigned char 
  5385 ;; Return value:  Size  Location     Type
  5386 ;;                  1    wreg      void 
  5387 ;; Registers used:
  5388 ;;		wreg, fsr0l, fsr0h, status,2, status,0, btemp+1, pclath, cstack
  5389 ;; Tracked objects:
  5390 ;;		On entry : 0/0
  5391 ;;		On exit  : 0/0
  5392 ;;		Unchanged: 0/0
  5393 ;; Data sizes:     COMMON   BANK0   BANK1   BANK3   BANK2
  5394 ;;      Params:         2       0       0       0       0
  5395 ;;      Locals:         2       0       0       0       0
  5396 ;;      Temps:          0       0       0       0       0
  5397 ;;      Totals:         4       0       0       0       0
  5398 ;;Total ram usage:        4 bytes
  5399 ;; Hardware stack levels used: 1
  5400 ;; Hardware stack levels required when called: 4
  5401 ;; This function calls:
  5402 ;;		_eeprom_at24C04_byte_write
  5403 ;; This function is called by:
  5404 ;;		_main
  5405 ;;		_log_event_write
  5406 ;; This function uses a non-reentrant model
  5407 ;;
  5408                           
  5409     17D1                     _eeprom_at24C04_str_write:	
  5410                           ;psect for function _eeprom_at24C04_str_write
  5411                           
  5412                           
  5413                           ;incstack = 0
  5414                           ; Regs used in _eeprom_at24C04_str_write: [wreg-fsr0h+status,2+status,0+btemp+1+pclath+c
      +                          stack]
  5415                           ;eeprom_at24C04_str_write@addr stored from wreg
  5416     17D1  00F7               	movwf	eeprom_at24C04_str_write@addr
  5417     17D2                     l3697:
  5418                           
  5419                           ;EEprom.c: 38: void eeprom_at24C04_str_write(unsigned char addr, unsigned char *str);EEp
      +                          rom.c: 39: {;EEprom.c: 40:     unsigned char i = 0;
  5420     17D2  01F8               	clrf	eeprom_at24C04_str_write@i
  5421                           
  5422                           ;EEprom.c: 41:     while(str[i] != '\0')
  5423     17D3  2FEC               	goto	l3703
  5424     17D4                     l3699:
  5425                           
  5426                           ;EEprom.c: 42:     {;EEprom.c: 43:       eeprom_at24C04_byte_write(addr+i, str[i]);
  5427     17D4  0878               	movf	eeprom_at24C04_str_write@i,w
  5428     17D5  0775               	addwf	eeprom_at24C04_str_write@str,w
  5429     17D6  0084               	movwf	4
  5430     17D7  0876               	movf	eeprom_at24C04_str_write@str+1,w
  5431     17D8  1803               	skipnc
  5432     17D9  0A76               	incf	eeprom_at24C04_str_write@str+1,w
  5433     17DA  00FF               	movwf	btemp+1
  5434     17DB  160A  118A  2000  160A  118A  	fcall	stringtab
  5435     17E0  00F3               	movwf	eeprom_at24C04_byte_write@data
  5436     17E1  0878               	movf	eeprom_at24C04_str_write@i,w
  5437     17E2  0777               	addwf	eeprom_at24C04_str_write@addr,w
  5438     17E3  160A  118A  2650  160A  118A  	fcall	_eeprom_at24C04_byte_write
  5439     17E8                     l3701:
  5440                           
  5441                           ;EEprom.c: 44:       i++;
  5442     17E8  3001               	movlw	1
  5443     17E9  00FF               	movwf	btemp+1
  5444     17EA  087F               	movf	btemp+1,w
  5445     17EB  07F8               	addwf	eeprom_at24C04_str_write@i,f
  5446     17EC                     l3703:
  5447                           
  5448                           ;EEprom.c: 41:     while(str[i] != '\0')
  5449     17EC  0878               	movf	eeprom_at24C04_str_write@i,w
  5450     17ED  0775               	addwf	eeprom_at24C04_str_write@str,w
  5451     17EE  0084               	movwf	4
  5452     17EF  0876               	movf	eeprom_at24C04_str_write@str+1,w
  5453     17F0  1803               	skipnc
  5454     17F1  0A76               	incf	eeprom_at24C04_str_write@str+1,w
  5455     17F2  1283               	bcf	3,5	;RP0=0, select bank0
  5456     17F3  1303               	bcf	3,6	;RP1=0, select bank0
  5457     17F4  00FF               	movwf	btemp+1
  5458     17F5  160A  118A  2000  160A  118A  	fcall	stringtab
  5459     17FA  3A00               	xorlw	0
  5460     17FB  1D03               	skipz
  5461     17FC  2FFE               	goto	u3091
  5462     17FD  2FFF               	goto	u3090
  5463     17FE                     u3091:
  5464     17FE  2FD4               	goto	l3699
  5465     17FF                     u3090:
  5466     17FF                     l392:
  5467     17FF  0008               	return
  5468     1800                     __end_of_eeprom_at24C04_str_write:
  5469                           
  5470                           	psect	text13
  5471     08E7                     __ptext13:	
  5472 ;; *************** function _init *****************
  5473 ;; Defined at:
  5474 ;;		line 16 in file "main.c"
  5475 ;; Parameters:    Size  Location     Type
  5476 ;;		None
  5477 ;; Auto vars:     Size  Location     Type
  5478 ;;		None
  5479 ;; Return value:  Size  Location     Type
  5480 ;;                  1    wreg      void 
  5481 ;; Registers used:
  5482 ;;		wreg, status,2, status,0, btemp+1, pclath, cstack
  5483 ;; Tracked objects:
  5484 ;;		On entry : 0/0
  5485 ;;		On exit  : 0/0
  5486 ;;		Unchanged: 0/0
  5487 ;; Data sizes:     COMMON   BANK0   BANK1   BANK3   BANK2
  5488 ;;      Params:         0       0       0       0       0
  5489 ;;      Locals:         0       0       0       0       0
  5490 ;;      Temps:          0       0       0       0       0
  5491 ;;      Totals:         0       0       0       0       0
  5492 ;;Total ram usage:        0 bytes
  5493 ;; Hardware stack levels used: 1
  5494 ;; Hardware stack levels required when called: 6
  5495 ;; This function calls:
  5496 ;;		_init_adc
  5497 ;;		_init_clcd
  5498 ;;		_init_digital_keypad
  5499 ;;		_init_ds1307
  5500 ;;		_init_i2c
  5501 ;;		_init_timer2
  5502 ;;		_init_uart
  5503 ;; This function is called by:
  5504 ;;		_main
  5505 ;; This function uses a non-reentrant model
  5506 ;;
  5507                           
  5508     08E7                     _init:	
  5509                           ;psect for function _init
  5510                           
  5511     08E7                     l3991:	
  5512                           ;incstack = 0
  5513                           ; Regs used in _init: [wreg+status,2+status,0+btemp+1+pclath+cstack]
  5514                           
  5515                           
  5516                           ;main.c: 18:     unsigned char key= 0x3F , pre_key = 0x3F , press_duration = 0,store;
  5517     08E7  160A  118A  252C  120A  158A  	fcall	_init_digital_keypad
  5518     08EC                     l3993:
  5519                           
  5520                           ;main.c: 19:     char gr = 0;
  5521     08EC  160A  118A  2532  120A  158A  	fcall	_init_adc
  5522     08F1                     l3995:
  5523                           
  5524                           ;main.c: 20:     char *gear[] = {"C ","G1","G2","G3","G4","G5","R "};
  5525     08F1  160A  118A  2574  120A  158A  	fcall	_init_clcd
  5526     08F6                     l3997:
  5527                           
  5528                           ;main.c: 21:     log_event(event,speed);
  5529     08F6  3000               	movlw	0
  5530     08F7  1283               	bcf	3,5	;RP0=0, select bank0
  5531     08F8  1303               	bcf	3,6	;RP1=0, select bank0
  5532     08F9  00A9               	movwf	init_i2c@baud+3
  5533     08FA  3001               	movlw	1
  5534     08FB  00A8               	movwf	init_i2c@baud+2
  5535     08FC  3086               	movlw	134
  5536     08FD  00A7               	movwf	init_i2c@baud+1
  5537     08FE  30A0               	movlw	160
  5538     08FF  00A6               	movwf	init_i2c@baud
  5539     0900  120A  158A  2015  120A  158A  	fcall	_init_i2c
  5540     0905                     l3999:
  5541                           
  5542                           ;main.c: 22:     eeprom_at24C04_str_write(0x00,"0000");
  5543     0905  160A  118A  25C9  120A  158A  	fcall	_init_ds1307
  5544     090A                     l4001:
  5545                           
  5546                           ;main.c: 23:     TMR2ON = 0;
  5547     090A  160A  118A  2599  120A  158A  	fcall	_init_timer2
  5548     090F                     l4003:
  5549                           
  5550                           ;main.c: 24:     while(1)
  5551     090F  3000               	movlw	0
  5552     0910  1283               	bcf	3,5	;RP0=0, select bank0
  5553     0911  1303               	bcf	3,6	;RP1=0, select bank0
  5554     0912  00A9               	movwf	init_uart@baud+3
  5555     0913  3000               	movlw	0
  5556     0914  00A8               	movwf	init_uart@baud+2
  5557     0915  3025               	movlw	37
  5558     0916  00A7               	movwf	init_uart@baud+1
  5559     0917  3080               	movlw	128
  5560     0918  00A6               	movwf	init_uart@baud
  5561     0919  120A  158A  207C  120A  158A  	fcall	_init_uart
  5562     091E                     l4005:
  5563                           
  5564                           ;main.c: 25:     {
  5565     091E  178B               	bsf	11,7	;volatile
  5566     091F                     l4007:
  5567                           
  5568                           ;main.c: 26:         speed = read_adc()/10;
  5569     091F  170B               	bsf	11,6	;volatile
  5570     0920                     l63:
  5571     0920  0008               	return
  5572     0921                     __end_of_init:
  5573                           
  5574                           	psect	text14
  5575     087C                     __ptext14:	
  5576 ;; *************** function _init_uart *****************
  5577 ;; Defined at:
  5578 ;;		line 14 in file "uart.c"
  5579 ;; Parameters:    Size  Location     Type
  5580 ;;  baud            4    6[BANK0 ] unsigned long 
  5581 ;; Auto vars:     Size  Location     Type
  5582 ;;		None
  5583 ;; Return value:  Size  Location     Type
  5584 ;;                  1    wreg      void 
  5585 ;; Registers used:
  5586 ;;		wreg, status,2, status,0, btemp+1, pclath, cstack
  5587 ;; Tracked objects:
  5588 ;;		On entry : 0/0
  5589 ;;		On exit  : 0/0
  5590 ;;		Unchanged: 0/0
  5591 ;; Data sizes:     COMMON   BANK0   BANK1   BANK3   BANK2
  5592 ;;      Params:         0       4       0       0       0
  5593 ;;      Locals:         0       0       0       0       0
  5594 ;;      Temps:          0       4       0       0       0
  5595 ;;      Totals:         0       8       0       0       0
  5596 ;;Total ram usage:        8 bytes
  5597 ;; Hardware stack levels used: 1
  5598 ;; Hardware stack levels required when called: 2
  5599 ;; This function calls:
  5600 ;;		___lldiv
  5601 ;; This function is called by:
  5602 ;;		_init
  5603 ;; This function uses a non-reentrant model
  5604 ;;
  5605                           
  5606     087C                     _init_uart:	
  5607                           ;psect for function _init_uart
  5608                           
  5609     087C                     l3823:	
  5610                           ;incstack = 0
  5611                           ; Regs used in _init_uart: [wreg+status,2+status,0+btemp+1+pclath+cstack]
  5612                           
  5613                           
  5614                           ;uart.c: 14: void init_uart(unsigned long baud);uart.c: 15: {;uart.c: 17:     SPEN = 1;
  5615     087C  1283               	bcf	3,5	;RP0=0, select bank0
  5616     087D  1303               	bcf	3,6	;RP1=0, select bank0
  5617     087E  1798               	bsf	24,7	;volatile
  5618                           
  5619                           ;uart.c: 20:     CREN = 1;
  5620     087F  1618               	bsf	24,4	;volatile
  5621                           
  5622                           ;uart.c: 21:     BRGH = 1;
  5623     0880  1683               	bsf	3,5	;RP0=1, select bank1
  5624     0881  1303               	bcf	3,6	;RP1=0, select bank1
  5625     0882  1518               	bsf	24,2	;volatile
  5626     0883                     l3825:
  5627                           
  5628                           ;uart.c: 23:     SPBRG = (20000000 / (16 * baud)) - 1;
  5629     0883  1283               	bcf	3,5	;RP0=0, select bank0
  5630     0884  1303               	bcf	3,6	;RP1=0, select bank0
  5631     0885  0826               	movf	init_uart@baud,w
  5632     0886  00AA               	movwf	??_init_uart
  5633     0887  0827               	movf	init_uart@baud+1,w
  5634     0888  00AB               	movwf	??_init_uart+1
  5635     0889  0828               	movf	init_uart@baud+2,w
  5636     088A  00AC               	movwf	??_init_uart+2
  5637     088B  0829               	movf	init_uart@baud+3,w
  5638     088C  00AD               	movwf	??_init_uart+3
  5639     088D  3004               	movlw	4
  5640     088E                     u3215:
  5641     088E  1003               	clrc
  5642     088F  0DAA               	rlf	??_init_uart,f
  5643     0890  0DAB               	rlf	??_init_uart+1,f
  5644     0891  0DAC               	rlf	??_init_uart+2,f
  5645     0892  0DAD               	rlf	??_init_uart+3,f
  5646     0893                     u3210:
  5647     0893  3EFF               	addlw	-1
  5648     0894  1D03               	skipz
  5649     0895  288E               	goto	u3215
  5650     0896  082D               	movf	??_init_uart+3,w
  5651     0897  00F5               	movwf	___lldiv@divisor+3
  5652     0898  082C               	movf	??_init_uart+2,w
  5653     0899  00F4               	movwf	___lldiv@divisor+2
  5654     089A  082B               	movf	??_init_uart+1,w
  5655     089B  00F3               	movwf	___lldiv@divisor+1
  5656     089C  082A               	movf	??_init_uart,w
  5657     089D  00F2               	movwf	___lldiv@divisor
  5658     089E  3001               	movlw	1
  5659     089F  00F9               	movwf	___lldiv@dividend+3
  5660     08A0  3031               	movlw	49
  5661     08A1  00F8               	movwf	___lldiv@dividend+2
  5662     08A2  302D               	movlw	45
  5663     08A3  00F7               	movwf	___lldiv@dividend+1
  5664     08A4  3000               	movlw	0
  5665     08A5  00F6               	movwf	___lldiv@dividend
  5666     08A6  120A  158A  246B  120A  158A  	fcall	___lldiv
  5667     08AB  0872               	movf	?___lldiv,w
  5668     08AC  3EFF               	addlw	255
  5669     08AD  1683               	bsf	3,5	;RP0=1, select bank1
  5670     08AE  1303               	bcf	3,6	;RP1=0, select bank1
  5671     08AF  0099               	movwf	25	;volatile
  5672     08B0                     l439:
  5673     08B0  0008               	return
  5674     08B1                     __end_of_init_uart:
  5675                           
  5676                           	psect	text15
  5677     1599                     __ptext15:	
  5678 ;; *************** function _init_timer2 *****************
  5679 ;; Defined at:
  5680 ;;		line 13 in file "timers.c"
  5681 ;; Parameters:    Size  Location     Type
  5682 ;;		None
  5683 ;; Auto vars:     Size  Location     Type
  5684 ;;		None
  5685 ;; Return value:  Size  Location     Type
  5686 ;;                  1    wreg      void 
  5687 ;; Registers used:
  5688 ;;		wreg
  5689 ;; Tracked objects:
  5690 ;;		On entry : 0/0
  5691 ;;		On exit  : 0/0
  5692 ;;		Unchanged: 0/0
  5693 ;; Data sizes:     COMMON   BANK0   BANK1   BANK3   BANK2
  5694 ;;      Params:         0       0       0       0       0
  5695 ;;      Locals:         0       0       0       0       0
  5696 ;;      Temps:          0       0       0       0       0
  5697 ;;      Totals:         0       0       0       0       0
  5698 ;;Total ram usage:        0 bytes
  5699 ;; Hardware stack levels used: 1
  5700 ;; Hardware stack levels required when called: 1
  5701 ;; This function calls:
  5702 ;;		Nothing
  5703 ;; This function is called by:
  5704 ;;		_init
  5705 ;; This function uses a non-reentrant model
  5706 ;;
  5707                           
  5708     1599                     _init_timer2:	
  5709                           ;psect for function _init_timer2
  5710                           
  5711     1599                     l2581:	
  5712                           ;incstack = 0
  5713                           ; Regs used in _init_timer2: [wreg]
  5714                           
  5715                           
  5716                           ;timers.c: 16:     T2CKPS0 = 1;
  5717     1599  1283               	bcf	3,5	;RP0=0, select bank0
  5718     159A  1303               	bcf	3,6	;RP1=0, select bank0
  5719     159B  1412               	bsf	18,0	;volatile
  5720                           
  5721                           ;timers.c: 17:     T2CKPS1 = 1;
  5722     159C  1492               	bsf	18,1	;volatile
  5723     159D                     l2583:
  5724                           
  5725                           ;timers.c: 20:     PR2 = 6;
  5726     159D  3006               	movlw	6
  5727     159E  1683               	bsf	3,5	;RP0=1, select bank1
  5728     159F  1303               	bcf	3,6	;RP1=0, select bank1
  5729     15A0  0092               	movwf	18	;volatile
  5730     15A1                     l2585:
  5731                           
  5732                           ;timers.c: 23:     TMR2IE = 1;
  5733     15A1  148C               	bsf	12,1	;volatile
  5734     15A2                     l2587:
  5735                           
  5736                           ;timers.c: 26:     TMR2ON = 1;
  5737     15A2  1283               	bcf	3,5	;RP0=0, select bank0
  5738     15A3  1303               	bcf	3,6	;RP1=0, select bank0
  5739     15A4  1512               	bsf	18,2	;volatile
  5740     15A5                     l405:
  5741     15A5  0008               	return
  5742     15A6                     __end_of_init_timer2:
  5743                           
  5744                           	psect	text16
  5745     0815                     __ptext16:	
  5746 ;; *************** function _init_i2c *****************
  5747 ;; Defined at:
  5748 ;;		line 14 in file "i2c.c"
  5749 ;; Parameters:    Size  Location     Type
  5750 ;;  baud            4    6[BANK0 ] unsigned long 
  5751 ;; Auto vars:     Size  Location     Type
  5752 ;;		None
  5753 ;; Return value:  Size  Location     Type
  5754 ;;                  1    wreg      void 
  5755 ;; Registers used:
  5756 ;;		wreg, status,2, status,0, btemp+1, pclath, cstack
  5757 ;; Tracked objects:
  5758 ;;		On entry : 0/0
  5759 ;;		On exit  : 0/0
  5760 ;;		Unchanged: 0/0
  5761 ;; Data sizes:     COMMON   BANK0   BANK1   BANK3   BANK2
  5762 ;;      Params:         0       4       0       0       0
  5763 ;;      Locals:         0       0       0       0       0
  5764 ;;      Temps:          0       4       0       0       0
  5765 ;;      Totals:         0       8       0       0       0
  5766 ;;Total ram usage:        8 bytes
  5767 ;; Hardware stack levels used: 1
  5768 ;; Hardware stack levels required when called: 2
  5769 ;; This function calls:
  5770 ;;		___lldiv
  5771 ;; This function is called by:
  5772 ;;		_init
  5773 ;; This function uses a non-reentrant model
  5774 ;;
  5775                           
  5776     0815                     _init_i2c:	
  5777                           ;psect for function _init_i2c
  5778                           
  5779     0815                     l3811:	
  5780                           ;incstack = 0
  5781                           ; Regs used in _init_i2c: [wreg+status,2+status,0+btemp+1+pclath+cstack]
  5782                           
  5783                           
  5784                           ;i2c.c: 14: void init_i2c(unsigned long baud);i2c.c: 15: {;i2c.c: 17:     SSPM3 = 1;
  5785     0815  1283               	bcf	3,5	;RP0=0, select bank0
  5786     0816  1303               	bcf	3,6	;RP1=0, select bank0
  5787     0817  1594               	bsf	20,3	;volatile
  5788     0818                     l3813:
  5789                           
  5790                           ;i2c.c: 20:     SSPADD = (unsigned char)(20000000 / (4 * baud)) - 1;
  5791     0818  0826               	movf	init_i2c@baud,w
  5792     0819  00AA               	movwf	??_init_i2c
  5793     081A  0827               	movf	init_i2c@baud+1,w
  5794     081B  00AB               	movwf	??_init_i2c+1
  5795     081C  0828               	movf	init_i2c@baud+2,w
  5796     081D  00AC               	movwf	??_init_i2c+2
  5797     081E  0829               	movf	init_i2c@baud+3,w
  5798     081F  00AD               	movwf	??_init_i2c+3
  5799     0820  3002               	movlw	2
  5800     0821                     u3205:
  5801     0821  1003               	clrc
  5802     0822  0DAA               	rlf	??_init_i2c,f
  5803     0823  0DAB               	rlf	??_init_i2c+1,f
  5804     0824  0DAC               	rlf	??_init_i2c+2,f
  5805     0825  0DAD               	rlf	??_init_i2c+3,f
  5806     0826                     u3200:
  5807     0826  3EFF               	addlw	-1
  5808     0827  1D03               	skipz
  5809     0828  2821               	goto	u3205
  5810     0829  082D               	movf	??_init_i2c+3,w
  5811     082A  00F5               	movwf	___lldiv@divisor+3
  5812     082B  082C               	movf	??_init_i2c+2,w
  5813     082C  00F4               	movwf	___lldiv@divisor+2
  5814     082D  082B               	movf	??_init_i2c+1,w
  5815     082E  00F3               	movwf	___lldiv@divisor+1
  5816     082F  082A               	movf	??_init_i2c,w
  5817     0830  00F2               	movwf	___lldiv@divisor
  5818     0831  3001               	movlw	1
  5819     0832  00F9               	movwf	___lldiv@dividend+3
  5820     0833  3031               	movlw	49
  5821     0834  00F8               	movwf	___lldiv@dividend+2
  5822     0835  302D               	movlw	45
  5823     0836  00F7               	movwf	___lldiv@dividend+1
  5824     0837  3000               	movlw	0
  5825     0838  00F6               	movwf	___lldiv@dividend
  5826     0839  120A  158A  246B  120A  158A  	fcall	___lldiv
  5827     083E  0872               	movf	?___lldiv,w
  5828     083F  3EFF               	addlw	255
  5829     0840  1683               	bsf	3,5	;RP0=1, select bank1
  5830     0841  1303               	bcf	3,6	;RP1=0, select bank1
  5831     0842  0093               	movwf	19	;volatile
  5832     0843                     l3815:
  5833                           
  5834                           ;i2c.c: 23:     SSPEN = 1;
  5835     0843  1283               	bcf	3,5	;RP0=0, select bank0
  5836     0844  1303               	bcf	3,6	;RP1=0, select bank0
  5837     0845  1694               	bsf	20,5	;volatile
  5838     0846                     l256:
  5839     0846  0008               	return
  5840     0847                     __end_of_init_i2c:
  5841                           
  5842                           	psect	text17
  5843     0C6B                     __ptext17:	
  5844 ;; *************** function ___lldiv *****************
  5845 ;; Defined at:
  5846 ;;		line 5 in file "C:\Program Files\Microchip\xc8\v2.45\pic\sources\c99\common\__lldiv.c"
  5847 ;; Parameters:    Size  Location     Type
  5848 ;;  divisor         4    2[COMMON] unsigned long 
  5849 ;;  dividend        4    6[COMMON] unsigned long 
  5850 ;; Auto vars:     Size  Location     Type
  5851 ;;  quotient        4    1[BANK0 ] unsigned long 
  5852 ;;  counter         1    5[BANK0 ] unsigned char 
  5853 ;; Return value:  Size  Location     Type
  5854 ;;                  4    2[COMMON] unsigned long 
  5855 ;; Registers used:
  5856 ;;		wreg, status,2, status,0, btemp+1
  5857 ;; Tracked objects:
  5858 ;;		On entry : 0/0
  5859 ;;		On exit  : 0/0
  5860 ;;		Unchanged: 0/0
  5861 ;; Data sizes:     COMMON   BANK0   BANK1   BANK3   BANK2
  5862 ;;      Params:         8       0       0       0       0
  5863 ;;      Locals:         0       5       0       0       0
  5864 ;;      Temps:          0       1       0       0       0
  5865 ;;      Totals:         8       6       0       0       0
  5866 ;;Total ram usage:       14 bytes
  5867 ;; Hardware stack levels used: 1
  5868 ;; Hardware stack levels required when called: 1
  5869 ;; This function calls:
  5870 ;;		Nothing
  5871 ;; This function is called by:
  5872 ;;		_init_i2c
  5873 ;;		_init_uart
  5874 ;; This function uses a non-reentrant model
  5875 ;;
  5876                           
  5877     0C6B                     ___lldiv:	
  5878                           ;psect for function ___lldiv
  5879                           
  5880     0C6B                     l3777:	
  5881                           ;incstack = 0
  5882                           ; Regs used in ___lldiv: [wreg+status,2+status,0+btemp+1]
  5883                           
  5884     0C6B  3000               	movlw	0
  5885     0C6C  1283               	bcf	3,5	;RP0=0, select bank0
  5886     0C6D  1303               	bcf	3,6	;RP1=0, select bank0
  5887     0C6E  00A4               	movwf	___lldiv@quotient+3
  5888     0C6F  3000               	movlw	0
  5889     0C70  00A3               	movwf	___lldiv@quotient+2
  5890     0C71  3000               	movlw	0
  5891     0C72  00A2               	movwf	___lldiv@quotient+1
  5892     0C73  3000               	movlw	0
  5893     0C74  00A1               	movwf	___lldiv@quotient
  5894     0C75  0875               	movf	___lldiv@divisor+3,w
  5895     0C76  0474               	iorwf	___lldiv@divisor+2,w
  5896     0C77  0473               	iorwf	___lldiv@divisor+1,w
  5897     0C78  0472               	iorwf	___lldiv@divisor,w
  5898     0C79  1903               	skipnz
  5899     0C7A  2C7C               	goto	u3131
  5900     0C7B  2C7D               	goto	u3130
  5901     0C7C                     u3131:
  5902     0C7C  2CCA               	goto	l3799
  5903     0C7D                     u3130:
  5904     0C7D                     l3779:
  5905     0C7D  01A5               	clrf	___lldiv@counter
  5906     0C7E  0AA5               	incf	___lldiv@counter,f
  5907     0C7F  2C8D               	goto	l3785
  5908     0C80                     l3781:
  5909     0C80  3001               	movlw	1
  5910     0C81  00A0               	movwf	??___lldiv
  5911     0C82                     u3145:
  5912     0C82  1003               	clrc
  5913     0C83  0DF2               	rlf	___lldiv@divisor,f
  5914     0C84  0DF3               	rlf	___lldiv@divisor+1,f
  5915     0C85  0DF4               	rlf	___lldiv@divisor+2,f
  5916     0C86  0DF5               	rlf	___lldiv@divisor+3,f
  5917     0C87  0BA0               	decfsz	??___lldiv,f
  5918     0C88  2C82               	goto	u3145
  5919     0C89                     l3783:
  5920     0C89  3001               	movlw	1
  5921     0C8A  00FF               	movwf	btemp+1
  5922     0C8B  087F               	movf	btemp+1,w
  5923     0C8C  07A5               	addwf	___lldiv@counter,f
  5924     0C8D                     l3785:
  5925     0C8D  1FF5               	btfss	___lldiv@divisor+3,7
  5926     0C8E  2C90               	goto	u3151
  5927     0C8F  2C91               	goto	u3150
  5928     0C90                     u3151:
  5929     0C90  2C80               	goto	l3781
  5930     0C91                     u3150:
  5931     0C91                     l3787:
  5932     0C91  3001               	movlw	1
  5933     0C92  00A0               	movwf	??___lldiv
  5934     0C93                     u3165:
  5935     0C93  1003               	clrc
  5936     0C94  0DA1               	rlf	___lldiv@quotient,f
  5937     0C95  0DA2               	rlf	___lldiv@quotient+1,f
  5938     0C96  0DA3               	rlf	___lldiv@quotient+2,f
  5939     0C97  0DA4               	rlf	___lldiv@quotient+3,f
  5940     0C98  0BA0               	decfsz	??___lldiv,f
  5941     0C99  2C93               	goto	u3165
  5942     0C9A                     l3789:
  5943     0C9A  0875               	movf	___lldiv@divisor+3,w
  5944     0C9B  0279               	subwf	___lldiv@dividend+3,w
  5945     0C9C  1D03               	skipz
  5946     0C9D  2CA8               	goto	u3175
  5947     0C9E  0874               	movf	___lldiv@divisor+2,w
  5948     0C9F  0278               	subwf	___lldiv@dividend+2,w
  5949     0CA0  1D03               	skipz
  5950     0CA1  2CA8               	goto	u3175
  5951     0CA2  0873               	movf	___lldiv@divisor+1,w
  5952     0CA3  0277               	subwf	___lldiv@dividend+1,w
  5953     0CA4  1D03               	skipz
  5954     0CA5  2CA8               	goto	u3175
  5955     0CA6  0872               	movf	___lldiv@divisor,w
  5956     0CA7  0276               	subwf	___lldiv@dividend,w
  5957     0CA8                     u3175:
  5958     0CA8  1C03               	skipc
  5959     0CA9  2CAB               	goto	u3171
  5960     0CAA  2CAC               	goto	u3170
  5961     0CAB                     u3171:
  5962     0CAB  2CBB               	goto	l3795
  5963     0CAC                     u3170:
  5964     0CAC                     l3791:
  5965     0CAC  0872               	movf	___lldiv@divisor,w
  5966     0CAD  02F6               	subwf	___lldiv@dividend,f
  5967     0CAE  0873               	movf	___lldiv@divisor+1,w
  5968     0CAF  1C03               	skipc
  5969     0CB0  0F73               	incfsz	___lldiv@divisor+1,w
  5970     0CB1  02F7               	subwf	___lldiv@dividend+1,f
  5971     0CB2  0874               	movf	___lldiv@divisor+2,w
  5972     0CB3  1C03               	skipc
  5973     0CB4  0F74               	incfsz	___lldiv@divisor+2,w
  5974     0CB5  02F8               	subwf	___lldiv@dividend+2,f
  5975     0CB6  0875               	movf	___lldiv@divisor+3,w
  5976     0CB7  1C03               	skipc
  5977     0CB8  0F75               	incfsz	___lldiv@divisor+3,w
  5978     0CB9  02F9               	subwf	___lldiv@dividend+3,f
  5979     0CBA                     l3793:
  5980     0CBA  1421               	bsf	___lldiv@quotient,0
  5981     0CBB                     l3795:
  5982     0CBB  3001               	movlw	1
  5983     0CBC                     u3185:
  5984     0CBC  1003               	clrc
  5985     0CBD  0CF5               	rrf	___lldiv@divisor+3,f
  5986     0CBE  0CF4               	rrf	___lldiv@divisor+2,f
  5987     0CBF  0CF3               	rrf	___lldiv@divisor+1,f
  5988     0CC0  0CF2               	rrf	___lldiv@divisor,f
  5989     0CC1  3EFF               	addlw	-1
  5990     0CC2  1D03               	skipz
  5991     0CC3  2CBC               	goto	u3185
  5992     0CC4                     l3797:
  5993     0CC4  3001               	movlw	1
  5994     0CC5  02A5               	subwf	___lldiv@counter,f
  5995     0CC6  1D03               	btfss	3,2
  5996     0CC7  2CC9               	goto	u3191
  5997     0CC8  2CCA               	goto	u3190
  5998     0CC9                     u3191:
  5999     0CC9  2C91               	goto	l3787
  6000     0CCA                     u3190:
  6001     0CCA                     l3799:
  6002     0CCA  0824               	movf	___lldiv@quotient+3,w
  6003     0CCB  00F5               	movwf	?___lldiv+3
  6004     0CCC  0823               	movf	___lldiv@quotient+2,w
  6005     0CCD  00F4               	movwf	?___lldiv+2
  6006     0CCE  0822               	movf	___lldiv@quotient+1,w
  6007     0CCF  00F3               	movwf	?___lldiv+1
  6008     0CD0  0821               	movf	___lldiv@quotient,w
  6009     0CD1  00F2               	movwf	?___lldiv
  6010     0CD2                     l702:
  6011     0CD2  0008               	return
  6012     0CD3                     __end_of___lldiv:
  6013                           
  6014                           	psect	text18
  6015     15C9                     __ptext18:	
  6016 ;; *************** function _init_ds1307 *****************
  6017 ;; Defined at:
  6018 ;;		line 16 in file "ds1307.c"
  6019 ;; Parameters:    Size  Location     Type
  6020 ;;		None
  6021 ;; Auto vars:     Size  Location     Type
  6022 ;;  dummy           1    6[COMMON] unsigned char 
  6023 ;; Return value:  Size  Location     Type
  6024 ;;                  1    wreg      void 
  6025 ;; Registers used:
  6026 ;;		wreg, status,2, status,0, pclath, cstack
  6027 ;; Tracked objects:
  6028 ;;		On entry : 0/0
  6029 ;;		On exit  : 0/0
  6030 ;;		Unchanged: 0/0
  6031 ;; Data sizes:     COMMON   BANK0   BANK1   BANK3   BANK2
  6032 ;;      Params:         0       0       0       0       0
  6033 ;;      Locals:         1       0       0       0       0
  6034 ;;      Temps:          0       0       0       0       0
  6035 ;;      Totals:         1       0       0       0       0
  6036 ;;Total ram usage:        1 bytes
  6037 ;; Hardware stack levels used: 1
  6038 ;; Hardware stack levels required when called: 5
  6039 ;; This function calls:
  6040 ;;		_read_ds1307
  6041 ;;		_write_ds1307
  6042 ;; This function is called by:
  6043 ;;		_init
  6044 ;; This function uses a non-reentrant model
  6045 ;;
  6046                           
  6047     15C9                     _init_ds1307:	
  6048                           ;psect for function _init_ds1307
  6049                           
  6050     15C9                     l3817:	
  6051                           ;incstack = 0
  6052                           ; Regs used in _init_ds1307: [wreg+status,2+status,0+pclath+cstack]
  6053                           
  6054                           
  6055                           ;ds1307.c: 18:     unsigned char dummy;;ds1307.c: 19:     dummy = read_ds1307(0x00);
  6056     15C9  3000               	movlw	0
  6057     15CA  160A  118A  2720  160A  118A  	fcall	_read_ds1307
  6058     15CF  00F6               	movwf	init_ds1307@dummy
  6059     15D0                     l3819:
  6060                           
  6061                           ;ds1307.c: 20:     dummy = dummy & 0x7F;
  6062     15D0  0876               	movf	init_ds1307@dummy,w
  6063     15D1  397F               	andlw	127
  6064     15D2  00F6               	movwf	init_ds1307@dummy
  6065     15D3                     l3821:
  6066                           
  6067                           ;ds1307.c: 21:     write_ds1307(0x00, dummy);
  6068     15D3  0876               	movf	init_ds1307@dummy,w
  6069     15D4  00F3               	movwf	write_ds1307@data
  6070     15D5  3000               	movlw	0
  6071     15D6  160A  118A  266E  160A  118A  	fcall	_write_ds1307
  6072     15DB                     l221:
  6073     15DB  0008               	return
  6074     15DC                     __end_of_init_ds1307:
  6075                           
  6076                           	psect	text19
  6077     166E                     __ptext19:	
  6078 ;; *************** function _write_ds1307 *****************
  6079 ;; Defined at:
  6080 ;;		line 39 in file "ds1307.c"
  6081 ;; Parameters:    Size  Location     Type
  6082 ;;  addr            1    wreg     unsigned char 
  6083 ;;  data            1    3[COMMON] unsigned char 
  6084 ;; Auto vars:     Size  Location     Type
  6085 ;;  addr            1    4[COMMON] unsigned char 
  6086 ;; Return value:  Size  Location     Type
  6087 ;;                  1    wreg      void 
  6088 ;; Registers used:
  6089 ;;		wreg, status,2, status,0, pclath, cstack
  6090 ;; Tracked objects:
  6091 ;;		On entry : 0/0
  6092 ;;		On exit  : 0/0
  6093 ;;		Unchanged: 0/0
  6094 ;; Data sizes:     COMMON   BANK0   BANK1   BANK3   BANK2
  6095 ;;      Params:         1       0       0       0       0
  6096 ;;      Locals:         1       0       0       0       0
  6097 ;;      Temps:          0       0       0       0       0
  6098 ;;      Totals:         2       0       0       0       0
  6099 ;;Total ram usage:        2 bytes
  6100 ;; Hardware stack levels used: 1
  6101 ;; Hardware stack levels required when called: 3
  6102 ;; This function calls:
  6103 ;;		_i2c_start
  6104 ;;		_i2c_stop
  6105 ;;		_i2c_write
  6106 ;; This function is called by:
  6107 ;;		_init_ds1307
  6108 ;;		_save_time
  6109 ;; This function uses a non-reentrant model
  6110 ;;
  6111                           
  6112     166E                     _write_ds1307:	
  6113                           ;psect for function _write_ds1307
  6114                           
  6115                           
  6116                           ;incstack = 0
  6117                           ; Regs used in _write_ds1307: [wreg+status,2+status,0+pclath+cstack]
  6118                           ;write_ds1307@addr stored from wreg
  6119     166E  00F4               	movwf	write_ds1307@addr
  6120     166F                     l3753:
  6121                           
  6122                           ;ds1307.c: 39: void write_ds1307(unsigned char addr, unsigned char data);ds1307.c: 40: {
      +                          ;ds1307.c: 41:     i2c_start();
  6123     166F  160A  118A  2541  160A  118A  	fcall	_i2c_start
  6124                           
  6125                           ;ds1307.c: 42:     i2c_write(0b11010000);
  6126     1674  30D0               	movlw	208
  6127     1675  160A  118A  2553  160A  118A  	fcall	_i2c_write
  6128                           
  6129                           ;ds1307.c: 43:     i2c_write(addr);
  6130     167A  0874               	movf	write_ds1307@addr,w
  6131     167B  160A  118A  2553  160A  118A  	fcall	_i2c_write
  6132                           
  6133                           ;ds1307.c: 44:     i2c_write(data);
  6134     1680  0873               	movf	write_ds1307@data,w
  6135     1681  160A  118A  2553  160A  118A  	fcall	_i2c_write
  6136                           
  6137                           ;ds1307.c: 45:     i2c_stop();
  6138     1686  160A  118A  254A  160A  118A  	fcall	_i2c_stop
  6139     168B                     l227:
  6140     168B  0008               	return
  6141     168C                     __end_of_write_ds1307:
  6142                           
  6143                           	psect	text20
  6144     152C                     __ptext20:	
  6145 ;; *************** function _init_digital_keypad *****************
  6146 ;; Defined at:
  6147 ;;		line 14 in file "digital_keypad.c"
  6148 ;; Parameters:    Size  Location     Type
  6149 ;;		None
  6150 ;; Auto vars:     Size  Location     Type
  6151 ;;		None
  6152 ;; Return value:  Size  Location     Type
  6153 ;;                  1    wreg      void 
  6154 ;; Registers used:
  6155 ;;		wreg, status,2
  6156 ;; Tracked objects:
  6157 ;;		On entry : 0/0
  6158 ;;		On exit  : 0/0
  6159 ;;		Unchanged: 0/0
  6160 ;; Data sizes:     COMMON   BANK0   BANK1   BANK3   BANK2
  6161 ;;      Params:         0       0       0       0       0
  6162 ;;      Locals:         0       0       0       0       0
  6163 ;;      Temps:          0       0       0       0       0
  6164 ;;      Totals:         0       0       0       0       0
  6165 ;;Total ram usage:        0 bytes
  6166 ;; Hardware stack levels used: 1
  6167 ;; Hardware stack levels required when called: 1
  6168 ;; This function calls:
  6169 ;;		Nothing
  6170 ;; This function is called by:
  6171 ;;		_init
  6172 ;; This function uses a non-reentrant model
  6173 ;;
  6174                           
  6175     152C                     _init_digital_keypad:	
  6176                           ;psect for function _init_digital_keypad
  6177                           
  6178     152C                     l2557:	
  6179                           ;incstack = 0
  6180                           ; Regs used in _init_digital_keypad: [wreg+status,2]
  6181                           
  6182                           
  6183                           ;digital_keypad.c: 17:     TRISB = TRISB | 0x3F;
  6184     152C  1683               	bsf	3,5	;RP0=1, select bank1
  6185     152D  1303               	bcf	3,6	;RP1=0, select bank1
  6186     152E  0806               	movf	6,w	;volatile
  6187     152F  383F               	iorlw	63
  6188     1530  0086               	movwf	6	;volatile
  6189     1531                     l132:
  6190     1531  0008               	return
  6191     1532                     __end_of_init_digital_keypad:
  6192                           
  6193                           	psect	text21
  6194     1574                     __ptext21:	
  6195 ;; *************** function _init_clcd *****************
  6196 ;; Defined at:
  6197 ;;		line 53 in file "clcd.c"
  6198 ;; Parameters:    Size  Location     Type
  6199 ;;		None
  6200 ;; Auto vars:     Size  Location     Type
  6201 ;;		None
  6202 ;; Return value:  Size  Location     Type
  6203 ;;                  1    wreg      void 
  6204 ;; Registers used:
  6205 ;;		wreg, status,2, status,0, pclath, cstack
  6206 ;; Tracked objects:
  6207 ;;		On entry : 0/0
  6208 ;;		On exit  : 0/0
  6209 ;;		Unchanged: 0/0
  6210 ;; Data sizes:     COMMON   BANK0   BANK1   BANK3   BANK2
  6211 ;;      Params:         0       0       0       0       0
  6212 ;;      Locals:         0       0       0       0       0
  6213 ;;      Temps:          0       0       0       0       0
  6214 ;;      Totals:         0       0       0       0       0
  6215 ;;Total ram usage:        0 bytes
  6216 ;; Hardware stack levels used: 1
  6217 ;; Hardware stack levels required when called: 3
  6218 ;; This function calls:
  6219 ;;		_init_display_controller
  6220 ;; This function is called by:
  6221 ;;		_init
  6222 ;; This function uses a non-reentrant model
  6223 ;;
  6224                           
  6225     1574                     _init_clcd:	
  6226                           ;psect for function _init_clcd
  6227                           
  6228     1574                     l3803:	
  6229                           ;incstack = 0
  6230                           ; Regs used in _init_clcd: [wreg+status,2+status,0+pclath+cstack]
  6231                           
  6232                           
  6233                           ;clcd.c: 56:     TRISD = 0x00;
  6234     1574  1683               	bsf	3,5	;RP0=1, select bank1
  6235     1575  1303               	bcf	3,6	;RP1=0, select bank1
  6236     1576  0188               	clrf	8	;volatile
  6237     1577                     l3805:
  6238                           
  6239                           ;clcd.c: 59:     TRISE2 = 0;
  6240     1577  1109               	bcf	9,2	;volatile
  6241     1578                     l3807:
  6242                           
  6243                           ;clcd.c: 60:     TRISE1 = 0;
  6244     1578  1089               	bcf	9,1	;volatile
  6245     1579                     l3809:
  6246                           
  6247                           ;clcd.c: 62:     init_display_controller();
  6248     1579  120A  158A  233A  160A  118A  	fcall	_init_display_controller
  6249     157E                     l186:
  6250     157E  0008               	return
  6251     157F                     __end_of_init_clcd:
  6252                           
  6253                           	psect	text22
  6254     0B3A                     __ptext22:	
  6255 ;; *************** function _init_display_controller *****************
  6256 ;; Defined at:
  6257 ;;		line 30 in file "clcd.c"
  6258 ;; Parameters:    Size  Location     Type
  6259 ;;		None
  6260 ;; Auto vars:     Size  Location     Type
  6261 ;;		None
  6262 ;; Return value:  Size  Location     Type
  6263 ;;                  1    wreg      void 
  6264 ;; Registers used:
  6265 ;;		wreg, status,2, status,0, pclath, cstack
  6266 ;; Tracked objects:
  6267 ;;		On entry : 0/0
  6268 ;;		On exit  : 0/0
  6269 ;;		Unchanged: 0/0
  6270 ;; Data sizes:     COMMON   BANK0   BANK1   BANK3   BANK2
  6271 ;;      Params:         0       0       0       0       0
  6272 ;;      Locals:         0       0       0       0       0
  6273 ;;      Temps:          2       0       0       0       0
  6274 ;;      Totals:         2       0       0       0       0
  6275 ;;Total ram usage:        2 bytes
  6276 ;; Hardware stack levels used: 1
  6277 ;; Hardware stack levels required when called: 2
  6278 ;; This function calls:
  6279 ;;		_clcd_write
  6280 ;; This function is called by:
  6281 ;;		_init_clcd
  6282 ;; This function uses a non-reentrant model
  6283 ;;
  6284                           
  6285     0B3A                     _init_display_controller:	
  6286                           ;psect for function _init_display_controller
  6287                           
  6288     0B3A                     l3717:	
  6289                           ;incstack = 0
  6290                           ; Regs used in _init_display_controller: [wreg+status,2+status,0+pclath+cstack]
  6291                           
  6292                           
  6293                           ;clcd.c: 33:     _delay((unsigned long)((30)*(20000000/4000.0)));
  6294     0B3A  30C3               	movlw	195
  6295     0B3B  00F7               	movwf	??_init_display_controller+1
  6296     0B3C  30CD               	movlw	205
  6297     0B3D  00F6               	movwf	??_init_display_controller
  6298     0B3E                     u4287:
  6299     0B3E  0BF6               	decfsz	??_init_display_controller,f
  6300     0B3F  2B3E               	goto	u4287
  6301     0B40  0BF7               	decfsz	??_init_display_controller+1,f
  6302     0B41  2B3E               	goto	u4287
  6303     0B42                     l3719:
  6304                           
  6305                           ;clcd.c: 36:     clcd_write(0x33, 0);
  6306     0B42  01F2               	clrf	clcd_write@mode
  6307     0B43  3033               	movlw	51
  6308     0B44  120A  158A  20B1  120A  158A  	fcall	_clcd_write
  6309     0B49                     l3721:
  6310                           
  6311                           ;clcd.c: 37:     _delay((unsigned long)((4100)*(20000000/4000000.0)));
  6312     0B49  301B               	movlw	27
  6313     0B4A  00F7               	movwf	??_init_display_controller+1
  6314     0B4B  309E               	movlw	158
  6315     0B4C  00F6               	movwf	??_init_display_controller
  6316     0B4D                     u4297:
  6317     0B4D  0BF6               	decfsz	??_init_display_controller,f
  6318     0B4E  2B4D               	goto	u4297
  6319     0B4F  0BF7               	decfsz	??_init_display_controller+1,f
  6320     0B50  2B4D               	goto	u4297
  6321     0B51  0000               	nop
  6322                           
  6323                           ;clcd.c: 38:     clcd_write(0x33, 0);
  6324     0B52  01F2               	clrf	clcd_write@mode
  6325     0B53  3033               	movlw	51
  6326     0B54  120A  158A  20B1  120A  158A  	fcall	_clcd_write
  6327     0B59                     l3723:
  6328                           
  6329                           ;clcd.c: 39:     _delay((unsigned long)((100)*(20000000/4000000.0)));
  6330     0B59  30A6               	movlw	166
  6331     0B5A  00F6               	movwf	??_init_display_controller
  6332     0B5B                     u4307:
  6333     0B5B  0BF6               	decfsz	??_init_display_controller,f
  6334     0B5C  2B5B               	goto	u4307
  6335     0B5D  0000               	nop
  6336     0B5E                     l3725:
  6337                           
  6338                           ;clcd.c: 40:     clcd_write(0x33, 0);
  6339     0B5E  01F2               	clrf	clcd_write@mode
  6340     0B5F  3033               	movlw	51
  6341     0B60  120A  158A  20B1  120A  158A  	fcall	_clcd_write
  6342     0B65                     l3727:
  6343                           
  6344                           ;clcd.c: 41:     _delay((unsigned long)((1)*(20000000/4000000.0)));
  6345     0B65  2B66               	nop2	;2 cycle nop
  6346     0B66  2B67               	nop2	;2 cycle nop
  6347     0B67  0000               	nop
  6348     0B68                     l3729:
  6349                           
  6350                           ;clcd.c: 43:     clcd_write(0x02, 0);
  6351     0B68  01F2               	clrf	clcd_write@mode
  6352     0B69  3002               	movlw	2
  6353     0B6A  120A  158A  20B1  120A  158A  	fcall	_clcd_write
  6354     0B6F                     l3731:
  6355                           
  6356                           ;clcd.c: 44:     _delay((unsigned long)((100)*(20000000/4000000.0)));
  6357     0B6F  30A6               	movlw	166
  6358     0B70  00F6               	movwf	??_init_display_controller
  6359     0B71                     u4317:
  6360     0B71  0BF6               	decfsz	??_init_display_controller,f
  6361     0B72  2B71               	goto	u4317
  6362     0B73  0000               	nop
  6363                           
  6364                           ;clcd.c: 45:     clcd_write(0x28, 0);
  6365     0B74  01F2               	clrf	clcd_write@mode
  6366     0B75  3028               	movlw	40
  6367     0B76  120A  158A  20B1  120A  158A  	fcall	_clcd_write
  6368     0B7B                     l3733:
  6369                           
  6370                           ;clcd.c: 46:     _delay((unsigned long)((100)*(20000000/4000000.0)));
  6371     0B7B  30A6               	movlw	166
  6372     0B7C  00F6               	movwf	??_init_display_controller
  6373     0B7D                     u4327:
  6374     0B7D  0BF6               	decfsz	??_init_display_controller,f
  6375     0B7E  2B7D               	goto	u4327
  6376     0B7F  0000               	nop
  6377     0B80                     l3735:
  6378                           
  6379                           ;clcd.c: 47:     clcd_write(0x01, 0);
  6380     0B80  01F2               	clrf	clcd_write@mode
  6381     0B81  3001               	movlw	1
  6382     0B82  120A  158A  20B1  120A  158A  	fcall	_clcd_write
  6383                           
  6384                           ;clcd.c: 48:     _delay((unsigned long)((500)*(20000000/4000000.0)));
  6385     0B87  3004               	movlw	4
  6386     0B88  00F7               	movwf	??_init_display_controller+1
  6387     0B89  303D               	movlw	61
  6388     0B8A  00F6               	movwf	??_init_display_controller
  6389     0B8B                     u4337:
  6390     0B8B  0BF6               	decfsz	??_init_display_controller,f
  6391     0B8C  2B8B               	goto	u4337
  6392     0B8D  0BF7               	decfsz	??_init_display_controller+1,f
  6393     0B8E  2B8B               	goto	u4337
  6394     0B8F  2B90               	nop2
  6395     0B90                     l3737:
  6396                           
  6397                           ;clcd.c: 49:     clcd_write(0x0C, 0);
  6398     0B90  01F2               	clrf	clcd_write@mode
  6399     0B91  300C               	movlw	12
  6400     0B92  120A  158A  20B1  120A  158A  	fcall	_clcd_write
  6401     0B97                     l3739:
  6402                           
  6403                           ;clcd.c: 50:     _delay((unsigned long)((100)*(20000000/4000000.0)));
  6404     0B97  30A6               	movlw	166
  6405     0B98  00F6               	movwf	??_init_display_controller
  6406     0B99                     u4347:
  6407     0B99  0BF6               	decfsz	??_init_display_controller,f
  6408     0B9A  2B99               	goto	u4347
  6409     0B9B  0000               	nop
  6410     0B9C                     l183:
  6411     0B9C  0008               	return
  6412     0B9D                     __end_of_init_display_controller:
  6413                           
  6414                           	psect	text23
  6415     1532                     __ptext23:	
  6416 ;; *************** function _init_adc *****************
  6417 ;; Defined at:
  6418 ;;		line 12 in file "adc.c"
  6419 ;; Parameters:    Size  Location     Type
  6420 ;;		None
  6421 ;; Auto vars:     Size  Location     Type
  6422 ;;		None
  6423 ;; Return value:  Size  Location     Type
  6424 ;;                  1    wreg      void 
  6425 ;; Registers used:
  6426 ;;		None
  6427 ;; Tracked objects:
  6428 ;;		On entry : 0/0
  6429 ;;		On exit  : 0/0
  6430 ;;		Unchanged: 0/0
  6431 ;; Data sizes:     COMMON   BANK0   BANK1   BANK3   BANK2
  6432 ;;      Params:         0       0       0       0       0
  6433 ;;      Locals:         0       0       0       0       0
  6434 ;;      Temps:          0       0       0       0       0
  6435 ;;      Totals:         0       0       0       0       0
  6436 ;;Total ram usage:        0 bytes
  6437 ;; Hardware stack levels used: 1
  6438 ;; Hardware stack levels required when called: 1
  6439 ;; This function calls:
  6440 ;;		Nothing
  6441 ;; This function is called by:
  6442 ;;		_init
  6443 ;; This function uses a non-reentrant model
  6444 ;;
  6445                           
  6446     1532                     _init_adc:	
  6447                           ;psect for function _init_adc
  6448                           
  6449     1532                     l2559:	
  6450                           ;incstack = 0
  6451                           ; Regs used in _init_adc: []
  6452                           
  6453                           
  6454                           ;adc.c: 15:     ADFM = 1;
  6455     1532  1683               	bsf	3,5	;RP0=1, select bank1
  6456     1533  1303               	bcf	3,6	;RP1=0, select bank1
  6457     1534  179F               	bsf	31,7	;volatile
  6458                           
  6459                           ;adc.c: 18:     ADON = 1;
  6460     1535  1283               	bcf	3,5	;RP0=0, select bank0
  6461     1536  1303               	bcf	3,6	;RP1=0, select bank0
  6462     1537  141F               	bsf	31,0	;volatile
  6463     1538                     l157:
  6464     1538  0008               	return
  6465     1539                     __end_of_init_adc:
  6466                           
  6467                           	psect	text24
  6468     0392                     __ptext24:	
  6469 ;; *************** function _download_log *****************
  6470 ;; Defined at:
  6471 ;;		line 74 in file "log_op.c"
  6472 ;; Parameters:    Size  Location     Type
  6473 ;;		None
  6474 ;; Auto vars:     Size  Location     Type
  6475 ;;  i               2    3[BANK0 ] int 
  6476 ;; Return value:  Size  Location     Type
  6477 ;;                  1    wreg      void 
  6478 ;; Registers used:
  6479 ;;		wreg, fsr0l, fsr0h, status,2, status,0, btemp+1, pclath, cstack
  6480 ;; Tracked objects:
  6481 ;;		On entry : 0/0
  6482 ;;		On exit  : 0/0
  6483 ;;		Unchanged: 0/0
  6484 ;; Data sizes:     COMMON   BANK0   BANK1   BANK3   BANK2
  6485 ;;      Params:         0       0       0       0       0
  6486 ;;      Locals:         0       2       0       0       0
  6487 ;;      Temps:          0       3       0       0       0
  6488 ;;      Totals:         0       5       0       0       0
  6489 ;;Total ram usage:        5 bytes
  6490 ;; Hardware stack levels used: 1
  6491 ;; Hardware stack levels required when called: 6
  6492 ;; This function calls:
  6493 ;;		_clcd_print
  6494 ;;		_clear_display
  6495 ;;		_fetch_data_from_memory
  6496 ;;		_puts
  6497 ;; This function is called by:
  6498 ;;		_main
  6499 ;; This function uses a non-reentrant model
  6500 ;;
  6501                           
  6502     0392                     _download_log:	
  6503                           ;psect for function _download_log
  6504                           
  6505     0392                     l4249:	
  6506                           ;incstack = 0
  6507                           ; Regs used in _download_log: [wreg-fsr0h+status,2+status,0+btemp+1+pclath+cstack]
  6508                           
  6509                           
  6510                           ;log_op.c: 76:     if(event == 0)
  6511     0392  087A               	movf	_event,w
  6512     0393  047B               	iorwf	_event+1,w
  6513     0394  1D03               	btfss	3,2
  6514     0395  2B97               	goto	u3731
  6515     0396  2B98               	goto	u3730
  6516     0397                     u3731:
  6517     0397  2BC7               	goto	l4263
  6518     0398                     u3730:
  6519     0398                     l4251:
  6520                           
  6521                           ;log_op.c: 77:     {;log_op.c: 78:         clear_display();
  6522     0398  160A  118A  25A6  120A  118A  	fcall	_clear_display
  6523     039D                     l4253:
  6524                           
  6525                           ;log_op.c: 79:         clcd_print("NO LOGS TO",(0x80 + 0));
  6526     039D  3007               	movlw	low (STR_29| (0+32768))
  6527     039E  00F6               	movwf	clcd_print@str
  6528     039F  3085               	movlw	high (STR_29| (0+32768))
  6529     03A0  00F7               	movwf	clcd_print@str+1
  6530     03A1  3080               	movlw	128
  6531     03A2  00F8               	movwf	clcd_print@addr
  6532     03A3  160A  118A  27A2  120A  118A  	fcall	_clcd_print
  6533     03A8                     l4255:
  6534                           
  6535                           ;log_op.c: 80:         clcd_print("DOWNLOAD",(0xC0 + 0));
  6536     03A8  3031               	movlw	low (STR_30| (0+32768))
  6537     03A9  00F6               	movwf	clcd_print@str
  6538     03AA  3085               	movlw	high (STR_30| (0+32768))
  6539     03AB  00F7               	movwf	clcd_print@str+1
  6540     03AC  30C0               	movlw	192
  6541     03AD  00F8               	movwf	clcd_print@addr
  6542     03AE  160A  118A  27A2  120A  118A  	fcall	_clcd_print
  6543     03B3                     l4257:
  6544                           
  6545                           ;log_op.c: 81:         _delay((unsigned long)((2000)*(20000000/4000.0)));
  6546     03B3  3033               	movlw	51
  6547     03B4  1283               	bcf	3,5	;RP0=0, select bank0
  6548     03B5  1303               	bcf	3,6	;RP1=0, select bank0
  6549     03B6  00A2               	movwf	??_download_log+2
  6550     03B7  30BB               	movlw	187
  6551     03B8  00A1               	movwf	??_download_log+1
  6552     03B9  30DF               	movlw	223
  6553     03BA  00A0               	movwf	??_download_log
  6554     03BB                     u4357:
  6555     03BB  0BA0               	decfsz	??_download_log,f
  6556     03BC  2BBB               	goto	u4357
  6557     03BD  0BA1               	decfsz	??_download_log+1,f
  6558     03BE  2BBB               	goto	u4357
  6559     03BF  0BA2               	decfsz	??_download_log+2,f
  6560     03C0  2BBB               	goto	u4357
  6561     03C1                     l4259:
  6562                           
  6563                           ;log_op.c: 82:         clear_display();
  6564     03C1  160A  118A  25A6  120A  118A  	fcall	_clear_display
  6565     03C6  2BFC               	goto	l533
  6566     03C7                     l4263:
  6567                           
  6568                           ;log_op.c: 85:     for(int i=0; i< event ; i++ )
  6569     03C7  1283               	bcf	3,5	;RP0=0, select bank0
  6570     03C8  1303               	bcf	3,6	;RP1=0, select bank0
  6571     03C9  01A3               	clrf	download_log@i
  6572     03CA  01A4               	clrf	download_log@i+1
  6573     03CB  2BEE               	goto	l4273
  6574     03CC                     l4265:
  6575                           
  6576                           ;log_op.c: 86:     {;log_op.c: 87:        fetch_data_from_memory(i);
  6577     03CC  1283               	bcf	3,5	;RP0=0, select bank0
  6578     03CD  1303               	bcf	3,6	;RP1=0, select bank0
  6579     03CE  0823               	movf	download_log@i,w
  6580     03CF  120A  158A  24D3  120A  118A  	fcall	_fetch_data_from_memory
  6581     03D4                     l4267:
  6582                           
  6583                           ;log_op.c: 88:        puts(fetch_data);
  6584     03D4  30A0               	movlw	(low (_fetch_data| 0))& (0+255)
  6585     03D5  00F3               	movwf	puts@s
  6586     03D6  3000               	movlw	0
  6587     03D7  00F4               	movwf	puts@s+1
  6588     03D8  160A  118A  26D0  120A  118A  	fcall	_puts
  6589     03DD                     l4269:
  6590                           
  6591                           ;log_op.c: 89:        puts ("  ");
  6592     03DD  3055               	movlw	low (STR_31| (0+32768))
  6593     03DE  00F3               	movwf	puts@s
  6594     03DF  3085               	movlw	high (STR_31| (0+32768))
  6595     03E0  00F4               	movwf	puts@s+1
  6596     03E1  160A  118A  26D0  120A  118A  	fcall	_puts
  6597     03E6                     l4271:
  6598                           
  6599                           ;log_op.c: 91:     }
  6600     03E6  3001               	movlw	1
  6601     03E7  1283               	bcf	3,5	;RP0=0, select bank0
  6602     03E8  1303               	bcf	3,6	;RP1=0, select bank0
  6603     03E9  07A3               	addwf	download_log@i,f
  6604     03EA  1803               	skipnc
  6605     03EB  0AA4               	incf	download_log@i+1,f
  6606     03EC  3000               	movlw	0
  6607     03ED  07A4               	addwf	download_log@i+1,f
  6608     03EE                     l4273:
  6609     03EE  0824               	movf	download_log@i+1,w
  6610     03EF  3A80               	xorlw	128
  6611     03F0  00A0               	movwf	??_download_log
  6612     03F1  087B               	movf	_event+1,w
  6613     03F2  3A80               	xorlw	128
  6614     03F3  0220               	subwf	??_download_log,w
  6615     03F4  1D03               	skipz
  6616     03F5  2BF8               	goto	u3745
  6617     03F6  087A               	movf	_event,w
  6618     03F7  0223               	subwf	download_log@i,w
  6619     03F8                     u3745:
  6620     03F8  1C03               	skipc
  6621     03F9  2BFB               	goto	u3741
  6622     03FA  2BFC               	goto	u3740
  6623     03FB                     u3741:
  6624     03FB  2BCC               	goto	l4265
  6625     03FC                     u3740:
  6626     03FC                     l533:
  6627     03FC  0008               	return
  6628     03FD                     __end_of_download_log:
  6629                           
  6630                           	psect	text25
  6631     16D0                     __ptext25:	
  6632 ;; *************** function _puts *****************
  6633 ;; Defined at:
  6634 ;;		line 36 in file "uart.c"
  6635 ;; Parameters:    Size  Location     Type
  6636 ;;  s               2    3[COMMON] PTR const unsigned char 
  6637 ;;		 -> STR_31(3), fetch_data(17), 
  6638 ;; Auto vars:     Size  Location     Type
  6639 ;;		None
  6640 ;; Return value:  Size  Location     Type
  6641 ;;                  1    wreg      void 
  6642 ;; Registers used:
  6643 ;;		wreg, fsr0l, fsr0h, status,2, status,0, btemp+1, pclath, cstack
  6644 ;; Tracked objects:
  6645 ;;		On entry : 0/0
  6646 ;;		On exit  : 0/0
  6647 ;;		Unchanged: 0/0
  6648 ;; Data sizes:     COMMON   BANK0   BANK1   BANK3   BANK2
  6649 ;;      Params:         2       0       0       0       0
  6650 ;;      Locals:         0       0       0       0       0
  6651 ;;      Temps:          0       0       0       0       0
  6652 ;;      Totals:         2       0       0       0       0
  6653 ;;Total ram usage:        2 bytes
  6654 ;; Hardware stack levels used: 1
  6655 ;; Hardware stack levels required when called: 2
  6656 ;; This function calls:
  6657 ;;		_putchar
  6658 ;; This function is called by:
  6659 ;;		_download_log
  6660 ;; This function uses a non-reentrant model
  6661 ;;
  6662                           
  6663     16D0                     _puts:	
  6664                           ;psect for function _puts
  6665                           
  6666     16D0                     l2661:	
  6667                           ;incstack = 0
  6668                           ; Regs used in _puts: [wreg-fsr0h+status,2+status,0+btemp+1+pclath+cstack]
  6669                           
  6670                           
  6671                           ;uart.c: 36: void puts(const char *s);uart.c: 37: {;uart.c: 38:     while (*s)
  6672     16D0  2EE5               	goto	l2667
  6673     16D1                     l2663:
  6674                           
  6675                           ;uart.c: 39:     {;uart.c: 40:         putchar(*s++);
  6676     16D1  0874               	movf	puts@s+1,w
  6677     16D2  00FF               	movwf	btemp+1
  6678     16D3  0873               	movf	puts@s,w
  6679     16D4  0084               	movwf	4
  6680     16D5  160A  118A  2000  160A  118A  	fcall	stringtab
  6681     16DA  160A  118A  2569  160A  118A  	fcall	_putchar
  6682     16DF                     l2665:
  6683     16DF  3001               	movlw	1
  6684     16E0  07F3               	addwf	puts@s,f
  6685     16E1  1803               	skipnc
  6686     16E2  0AF4               	incf	puts@s+1,f
  6687     16E3  3000               	movlw	0
  6688     16E4  07F4               	addwf	puts@s+1,f
  6689     16E5                     l2667:
  6690                           
  6691                           ;uart.c: 38:     while (*s)
  6692     16E5  0874               	movf	puts@s+1,w
  6693     16E6  1283               	bcf	3,5	;RP0=0, select bank0
  6694     16E7  1303               	bcf	3,6	;RP1=0, select bank0
  6695     16E8  00FF               	movwf	btemp+1
  6696     16E9  0873               	movf	puts@s,w
  6697     16EA  0084               	movwf	4
  6698     16EB  160A  118A  2000  160A  118A  	fcall	stringtab
  6699     16F0  3A00               	xorlw	0
  6700     16F1  1D03               	skipz
  6701     16F2  2EF4               	goto	u1801
  6702     16F3  2EF5               	goto	u1800
  6703     16F4                     u1801:
  6704     16F4  2ED1               	goto	l2663
  6705     16F5                     u1800:
  6706     16F5                     l451:
  6707     16F5  0008               	return
  6708     16F6                     __end_of_puts:
  6709                           
  6710                           	psect	text26
  6711     1569                     __ptext26:	
  6712 ;; *************** function _putchar *****************
  6713 ;; Defined at:
  6714 ;;		line 26 in file "uart.c"
  6715 ;; Parameters:    Size  Location     Type
  6716 ;;  data            1    wreg     unsigned char 
  6717 ;; Auto vars:     Size  Location     Type
  6718 ;;  data            1    2[COMMON] unsigned char 
  6719 ;; Return value:  Size  Location     Type
  6720 ;;                  1    wreg      void 
  6721 ;; Registers used:
  6722 ;;		wreg
  6723 ;; Tracked objects:
  6724 ;;		On entry : 0/0
  6725 ;;		On exit  : 0/0
  6726 ;;		Unchanged: 0/0
  6727 ;; Data sizes:     COMMON   BANK0   BANK1   BANK3   BANK2
  6728 ;;      Params:         0       0       0       0       0
  6729 ;;      Locals:         1       0       0       0       0
  6730 ;;      Temps:          0       0       0       0       0
  6731 ;;      Totals:         1       0       0       0       0
  6732 ;;Total ram usage:        1 bytes
  6733 ;; Hardware stack levels used: 1
  6734 ;; Hardware stack levels required when called: 1
  6735 ;; This function calls:
  6736 ;;		Nothing
  6737 ;; This function is called by:
  6738 ;;		_puts
  6739 ;; This function uses a non-reentrant model
  6740 ;;
  6741                           
  6742     1569                     _putchar:	
  6743                           ;psect for function _putchar
  6744                           
  6745                           
  6746                           ;incstack = 0
  6747                           ; Regs used in _putchar: [wreg]
  6748                           ;putchar@data stored from wreg
  6749     1569  00F2               	movwf	putchar@data
  6750     156A                     l2513:
  6751                           
  6752                           ;uart.c: 26: void putchar(unsigned char data);uart.c: 27: {;uart.c: 28:     TXREG = data
      +                          ;
  6753     156A  0872               	movf	putchar@data,w
  6754     156B  1283               	bcf	3,5	;RP0=0, select bank0
  6755     156C  1303               	bcf	3,6	;RP1=0, select bank0
  6756     156D  0099               	movwf	25	;volatile
  6757     156E                     l443:	
  6758                           ;uart.c: 32:     }while(TXIF != 1);
  6759                           
  6760     156E  1E0C               	btfss	12,4	;volatile
  6761     156F  2D71               	goto	u1581
  6762     1570  2D72               	goto	u1580
  6763     1571                     u1581:
  6764     1571  2D6E               	goto	l443
  6765     1572                     u1580:
  6766     1572                     l444:
  6767                           
  6768                           ;uart.c: 33:     TXIF = 0;
  6769     1572  120C               	bcf	12,4	;volatile
  6770     1573                     l445:
  6771     1573  0008               	return
  6772     1574                     __end_of_putchar:
  6773                           
  6774                           	psect	text27
  6775     0CD3                     __ptext27:	
  6776 ;; *************** function _fetch_data_from_memory *****************
  6777 ;; Defined at:
  6778 ;;		line 43 in file "log_op.c"
  6779 ;; Parameters:    Size  Location     Type
  6780 ;;  i               1    wreg     unsigned char 
  6781 ;; Auto vars:     Size  Location     Type
  6782 ;;  i               1    6[COMMON] unsigned char 
  6783 ;;  addr            1    7[COMMON] unsigned char 
  6784 ;; Return value:  Size  Location     Type
  6785 ;;                  1    wreg      void 
  6786 ;; Registers used:
  6787 ;;		wreg, status,2, status,0, btemp+1, pclath, cstack
  6788 ;; Tracked objects:
  6789 ;;		On entry : 0/0
  6790 ;;		On exit  : 0/0
  6791 ;;		Unchanged: 0/0
  6792 ;; Data sizes:     COMMON   BANK0   BANK1   BANK3   BANK2
  6793 ;;      Params:         0       0       0       0       0
  6794 ;;      Locals:         2       0       0       0       0
  6795 ;;      Temps:          0       0       0       0       0
  6796 ;;      Totals:         2       0       0       0       0
  6797 ;;Total ram usage:        2 bytes
  6798 ;; Hardware stack levels used: 1
  6799 ;; Hardware stack levels required when called: 5
  6800 ;; This function calls:
  6801 ;;		___bmul
  6802 ;;		_eeprom_at24C04_read
  6803 ;; This function is called by:
  6804 ;;		_view_log
  6805 ;;		_download_log
  6806 ;; This function uses a non-reentrant model
  6807 ;;
  6808                           
  6809     0CD3                     _fetch_data_from_memory:	
  6810                           ;psect for function _fetch_data_from_memory
  6811                           
  6812                           
  6813                           ;incstack = 0
  6814                           ; Regs used in _fetch_data_from_memory: [wreg+status,2+status,0+btemp+1+pclath+cstack]
  6815                           ;fetch_data_from_memory@i stored from wreg
  6816     0CD3  00F6               	movwf	fetch_data_from_memory@i
  6817     0CD4                     l3873:
  6818                           
  6819                           ;log_op.c: 43: void fetch_data_from_memory(unsigned char i);log_op.c: 44: {;log_op.c: 45
      +                          :     unsigned char addr = 0x05 + i*10;
  6820     0CD4  300A               	movlw	10
  6821     0CD5  00F2               	movwf	___bmul@multiplicand
  6822     0CD6  0876               	movf	fetch_data_from_memory@i,w
  6823     0CD7  120A  158A  2000  120A  158A  	fcall	___bmul
  6824     0CDC  3E05               	addlw	5
  6825     0CDD  00F7               	movwf	fetch_data_from_memory@addr
  6826     0CDE                     l3875:
  6827                           
  6828                           ;log_op.c: 46:     fetch_data[0] = i+'a';
  6829     0CDE  0876               	movf	fetch_data_from_memory@i,w
  6830     0CDF  3E61               	addlw	97
  6831     0CE0  1683               	bsf	3,5	;RP0=1, select bank1
  6832     0CE1  1303               	bcf	3,6	;RP1=0, select bank1
  6833     0CE2  00A0               	movwf	_fetch_data^(0+128)
  6834     0CE3                     l3877:
  6835                           
  6836                           ;log_op.c: 47:     fetch_data[1] = '.';
  6837     0CE3  302E               	movlw	46
  6838     0CE4  00A1               	movwf	(_fetch_data^(0+128)+1)
  6839     0CE5                     l3879:
  6840                           
  6841                           ;log_op.c: 48:     fetch_data[2] = eeprom_at24C04_read(addr);
  6842     0CE5  0877               	movf	fetch_data_from_memory@addr,w
  6843     0CE6  160A  118A  274B  120A  158A  	fcall	_eeprom_at24C04_read
  6844     0CEB  1683               	bsf	3,5	;RP0=1, select bank1
  6845     0CEC  1303               	bcf	3,6	;RP1=0, select bank1
  6846     0CED  00A2               	movwf	(_fetch_data^(0+128)+2)
  6847     0CEE                     l3881:
  6848                           
  6849                           ;log_op.c: 49:     fetch_data[3] = eeprom_at24C04_read(addr+1);
  6850     0CEE  0877               	movf	fetch_data_from_memory@addr,w
  6851     0CEF  3E01               	addlw	1
  6852     0CF0  160A  118A  274B  120A  158A  	fcall	_eeprom_at24C04_read
  6853     0CF5  1683               	bsf	3,5	;RP0=1, select bank1
  6854     0CF6  1303               	bcf	3,6	;RP1=0, select bank1
  6855     0CF7  00A3               	movwf	(_fetch_data^(0+128)+3)
  6856     0CF8                     l3883:
  6857                           
  6858                           ;log_op.c: 50:     fetch_data[4] = ':';
  6859     0CF8  303A               	movlw	58
  6860     0CF9  00A4               	movwf	(_fetch_data^(0+128)+4)
  6861     0CFA                     l3885:
  6862                           
  6863                           ;log_op.c: 51:     fetch_data[5] = eeprom_at24C04_read(addr+2);
  6864     0CFA  0877               	movf	fetch_data_from_memory@addr,w
  6865     0CFB  3E02               	addlw	2
  6866     0CFC  160A  118A  274B  120A  158A  	fcall	_eeprom_at24C04_read
  6867     0D01  1683               	bsf	3,5	;RP0=1, select bank1
  6868     0D02  1303               	bcf	3,6	;RP1=0, select bank1
  6869     0D03  00A5               	movwf	(_fetch_data^(0+128)+5)
  6870     0D04                     l3887:
  6871                           
  6872                           ;log_op.c: 52:     fetch_data[6] = eeprom_at24C04_read(addr+3);
  6873     0D04  0877               	movf	fetch_data_from_memory@addr,w
  6874     0D05  3E03               	addlw	3
  6875     0D06  160A  118A  274B  120A  158A  	fcall	_eeprom_at24C04_read
  6876     0D0B  1683               	bsf	3,5	;RP0=1, select bank1
  6877     0D0C  1303               	bcf	3,6	;RP1=0, select bank1
  6878     0D0D  00A6               	movwf	(_fetch_data^(0+128)+6)
  6879     0D0E                     l3889:
  6880                           
  6881                           ;log_op.c: 53:     fetch_data[7] = ':';
  6882     0D0E  303A               	movlw	58
  6883     0D0F  00A7               	movwf	(_fetch_data^(0+128)+7)
  6884     0D10                     l3891:
  6885                           
  6886                           ;log_op.c: 54:     fetch_data[8] = eeprom_at24C04_read(addr+4);
  6887     0D10  0877               	movf	fetch_data_from_memory@addr,w
  6888     0D11  3E04               	addlw	4
  6889     0D12  160A  118A  274B  120A  158A  	fcall	_eeprom_at24C04_read
  6890     0D17  1683               	bsf	3,5	;RP0=1, select bank1
  6891     0D18  1303               	bcf	3,6	;RP1=0, select bank1
  6892     0D19  00A8               	movwf	(_fetch_data^(0+128)+8)
  6893     0D1A                     l3893:
  6894                           
  6895                           ;log_op.c: 55:     fetch_data[9] = eeprom_at24C04_read(addr+5);
  6896     0D1A  0877               	movf	fetch_data_from_memory@addr,w
  6897     0D1B  3E05               	addlw	5
  6898     0D1C  160A  118A  274B  120A  158A  	fcall	_eeprom_at24C04_read
  6899     0D21  1683               	bsf	3,5	;RP0=1, select bank1
  6900     0D22  1303               	bcf	3,6	;RP1=0, select bank1
  6901     0D23  00A9               	movwf	(_fetch_data^(0+128)+9)
  6902     0D24                     l3895:
  6903                           
  6904                           ;log_op.c: 56:     fetch_data[10] = ' ';
  6905     0D24  3020               	movlw	32
  6906     0D25  00AA               	movwf	(_fetch_data^(0+128)+10)
  6907     0D26                     l3897:
  6908                           
  6909                           ;log_op.c: 57:     fetch_data[11] = eeprom_at24C04_read(addr+6);
  6910     0D26  0877               	movf	fetch_data_from_memory@addr,w
  6911     0D27  3E06               	addlw	6
  6912     0D28  160A  118A  274B  120A  158A  	fcall	_eeprom_at24C04_read
  6913     0D2D  1683               	bsf	3,5	;RP0=1, select bank1
  6914     0D2E  1303               	bcf	3,6	;RP1=0, select bank1
  6915     0D2F  00AB               	movwf	(_fetch_data^(0+128)+11)
  6916     0D30                     l3899:
  6917                           
  6918                           ;log_op.c: 58:     fetch_data[12] = eeprom_at24C04_read(addr+7);
  6919     0D30  0877               	movf	fetch_data_from_memory@addr,w
  6920     0D31  3E07               	addlw	7
  6921     0D32  160A  118A  274B  120A  158A  	fcall	_eeprom_at24C04_read
  6922     0D37  1683               	bsf	3,5	;RP0=1, select bank1
  6923     0D38  1303               	bcf	3,6	;RP1=0, select bank1
  6924     0D39  00AC               	movwf	(_fetch_data^(0+128)+12)
  6925     0D3A                     l3901:
  6926                           
  6927                           ;log_op.c: 59:     fetch_data[13] = ' ';
  6928     0D3A  3020               	movlw	32
  6929     0D3B  00AD               	movwf	(_fetch_data^(0+128)+13)
  6930     0D3C                     l3903:
  6931                           
  6932                           ;log_op.c: 60:     fetch_data[14] = eeprom_at24C04_read(addr+8);
  6933     0D3C  0877               	movf	fetch_data_from_memory@addr,w
  6934     0D3D  3E08               	addlw	8
  6935     0D3E  160A  118A  274B  120A  158A  	fcall	_eeprom_at24C04_read
  6936     0D43  1683               	bsf	3,5	;RP0=1, select bank1
  6937     0D44  1303               	bcf	3,6	;RP1=0, select bank1
  6938     0D45  00AE               	movwf	(_fetch_data^(0+128)+14)
  6939     0D46                     l3905:
  6940                           
  6941                           ;log_op.c: 61:     fetch_data[15] = eeprom_at24C04_read(addr+9);
  6942     0D46  0877               	movf	fetch_data_from_memory@addr,w
  6943     0D47  3E09               	addlw	9
  6944     0D48  160A  118A  274B  120A  158A  	fcall	_eeprom_at24C04_read
  6945     0D4D  1683               	bsf	3,5	;RP0=1, select bank1
  6946     0D4E  1303               	bcf	3,6	;RP1=0, select bank1
  6947     0D4F  00AF               	movwf	(_fetch_data^(0+128)+15)
  6948     0D50                     l3907:
  6949                           
  6950                           ;log_op.c: 62:     fetch_data[16] = '\0';
  6951     0D50  01B0               	clrf	(_fetch_data^(0+128)+16)
  6952     0D51                     l524:
  6953     0D51  0008               	return
  6954     0D52                     __end_of_fetch_data_from_memory:
  6955                           
  6956                           	psect	text28
  6957     174B                     __ptext28:	
  6958 ;; *************** function _eeprom_at24C04_read *****************
  6959 ;; Defined at:
  6960 ;;		line 13 in file "EEprom.c"
  6961 ;; Parameters:    Size  Location     Type
  6962 ;;  addr            1    wreg     unsigned char 
  6963 ;; Auto vars:     Size  Location     Type
  6964 ;;  addr            1    4[COMMON] unsigned char 
  6965 ;;  data            1    5[COMMON] unsigned char 
  6966 ;; Return value:  Size  Location     Type
  6967 ;;                  1    wreg      unsigned char 
  6968 ;; Registers used:
  6969 ;;		wreg, status,2, status,0, pclath, cstack
  6970 ;; Tracked objects:
  6971 ;;		On entry : 0/0
  6972 ;;		On exit  : 0/0
  6973 ;;		Unchanged: 0/0
  6974 ;; Data sizes:     COMMON   BANK0   BANK1   BANK3   BANK2
  6975 ;;      Params:         0       0       0       0       0
  6976 ;;      Locals:         2       0       0       0       0
  6977 ;;      Temps:          0       0       0       0       0
  6978 ;;      Totals:         2       0       0       0       0
  6979 ;;Total ram usage:        2 bytes
  6980 ;; Hardware stack levels used: 1
  6981 ;; Hardware stack levels required when called: 4
  6982 ;; This function calls:
  6983 ;;		_i2c_read
  6984 ;;		_i2c_rep_start
  6985 ;;		_i2c_start
  6986 ;;		_i2c_stop
  6987 ;;		_i2c_write
  6988 ;; This function is called by:
  6989 ;;		_login
  6990 ;;		_fetch_data_from_memory
  6991 ;; This function uses a non-reentrant model
  6992 ;;
  6993                           
  6994     174B                     _eeprom_at24C04_read:	
  6995                           ;psect for function _eeprom_at24C04_read
  6996                           
  6997                           
  6998                           ;incstack = 0
  6999                           ; Regs used in _eeprom_at24C04_read: [wreg+status,2+status,0+pclath+cstack]
  7000                           ;eeprom_at24C04_read@addr stored from wreg
  7001     174B  00F4               	movwf	eeprom_at24C04_read@addr
  7002     174C                     l3755:
  7003                           
  7004                           ;EEprom.c: 13: unsigned char eeprom_at24C04_read(unsigned char addr);EEprom.c: 14: {;EEp
      +                          rom.c: 15:     unsigned char data;;EEprom.c: 17:     i2c_start();
  7005     174C  160A  118A  2541  160A  118A  	fcall	_i2c_start
  7006                           
  7007                           ;EEprom.c: 18:     i2c_write(0b10100000);
  7008     1751  30A0               	movlw	160
  7009     1752  160A  118A  2553  160A  118A  	fcall	_i2c_write
  7010                           
  7011                           ;EEprom.c: 19:     i2c_write(addr);
  7012     1757  0874               	movf	eeprom_at24C04_read@addr,w
  7013     1758  160A  118A  2553  160A  118A  	fcall	_i2c_write
  7014                           
  7015                           ;EEprom.c: 20:     i2c_rep_start();
  7016     175D  160A  118A  255E  160A  118A  	fcall	_i2c_rep_start
  7017                           
  7018                           ;EEprom.c: 21:     i2c_write(0b10100001);
  7019     1762  30A1               	movlw	161
  7020     1763  160A  118A  2553  160A  118A  	fcall	_i2c_write
  7021                           
  7022                           ;EEprom.c: 22:     data = i2c_read(0);
  7023     1768  3000               	movlw	0
  7024     1769  160A  118A  268C  160A  118A  	fcall	_i2c_read
  7025     176E  00F5               	movwf	eeprom_at24C04_read@data
  7026                           
  7027                           ;EEprom.c: 23:     i2c_stop();
  7028     176F  160A  118A  254A  160A  118A  	fcall	_i2c_stop
  7029     1774                     l3757:
  7030                           
  7031                           ;EEprom.c: 25:     return data;
  7032     1774  0875               	movf	eeprom_at24C04_read@data,w
  7033     1775                     l383:
  7034     1775  0008               	return
  7035     1776                     __end_of_eeprom_at24C04_read:
  7036                           
  7037                           	psect	text29
  7038     0800                     __ptext29:	
  7039 ;; *************** function ___bmul *****************
  7040 ;; Defined at:
  7041 ;;		line 4 in file "C:\Program Files\Microchip\xc8\v2.45\pic\sources\c99\common\Umul8.c"
  7042 ;; Parameters:    Size  Location     Type
  7043 ;;  multiplier      1    wreg     unsigned char 
  7044 ;;  multiplicand    1    2[COMMON] unsigned char 
  7045 ;; Auto vars:     Size  Location     Type
  7046 ;;  multiplier      1    4[COMMON] unsigned char 
  7047 ;;  product         1    3[COMMON] unsigned char 
  7048 ;; Return value:  Size  Location     Type
  7049 ;;                  1    wreg      unsigned char 
  7050 ;; Registers used:
  7051 ;;		wreg, status,2, status,0, btemp+1
  7052 ;; Tracked objects:
  7053 ;;		On entry : 0/0
  7054 ;;		On exit  : 0/0
  7055 ;;		Unchanged: 0/0
  7056 ;; Data sizes:     COMMON   BANK0   BANK1   BANK3   BANK2
  7057 ;;      Params:         1       0       0       0       0
  7058 ;;      Locals:         2       0       0       0       0
  7059 ;;      Temps:          0       0       0       0       0
  7060 ;;      Totals:         3       0       0       0       0
  7061 ;;Total ram usage:        3 bytes
  7062 ;; Hardware stack levels used: 1
  7063 ;; Hardware stack levels required when called: 1
  7064 ;; This function calls:
  7065 ;;		Nothing
  7066 ;; This function is called by:
  7067 ;;		_log_event_write
  7068 ;;		_fetch_data_from_memory
  7069 ;; This function uses a non-reentrant model
  7070 ;;
  7071                           
  7072     0800                     ___bmul:	
  7073                           ;psect for function ___bmul
  7074                           
  7075                           
  7076                           ;incstack = 0
  7077                           ; Regs used in ___bmul: [wreg+status,2+status,0+btemp+1]
  7078                           ;___bmul@multiplier stored from wreg
  7079     0800  00F4               	movwf	___bmul@multiplier
  7080     0801                     l3761:
  7081     0801  01F3               	clrf	___bmul@product
  7082     0802                     l3763:
  7083     0802  1C74               	btfss	___bmul@multiplier,0
  7084     0803  2805               	goto	u3111
  7085     0804  2806               	goto	u3110
  7086     0805                     u3111:
  7087     0805  280A               	goto	l3767
  7088     0806                     u3110:
  7089     0806                     l3765:
  7090     0806  0872               	movf	___bmul@multiplicand,w
  7091     0807  00FF               	movwf	btemp+1
  7092     0808  087F               	movf	btemp+1,w
  7093     0809  07F3               	addwf	___bmul@product,f
  7094     080A                     l3767:
  7095     080A  1003               	clrc
  7096     080B  0DF2               	rlf	___bmul@multiplicand,f
  7097     080C                     l3769:
  7098     080C  1003               	clrc
  7099     080D  0CF4               	rrf	___bmul@multiplier,f
  7100     080E                     l3771:
  7101     080E  0874               	movf	___bmul@multiplier,w
  7102     080F  1D03               	btfss	3,2
  7103     0810  2812               	goto	u3121
  7104     0811  2813               	goto	u3120
  7105     0812                     u3121:
  7106     0812  2802               	goto	l3763
  7107     0813                     u3120:
  7108     0813                     l3773:
  7109     0813  0873               	movf	___bmul@product,w
  7110     0814                     l692:
  7111     0814  0008               	return
  7112     0815                     __end_of___bmul:
  7113                           
  7114                           	psect	text30
  7115     06D8                     __ptext30:	
  7116 ;; *************** function _display_menu *****************
  7117 ;; Defined at:
  7118 ;;		line 156 in file "c_b_b.c"
  7119 ;; Parameters:    Size  Location     Type
  7120 ;;  key             1    wreg     unsigned char 
  7121 ;;  reset           1    9[COMMON] PTR unsigned char 
  7122 ;;		 -> main@reset(1), 
  7123 ;; Auto vars:     Size  Location     Type
  7124 ;;  key             1   14[BANK0 ] unsigned char 
  7125 ;;  menu           10    4[BANK0 ] PTR unsigned char [5]
  7126 ;;		 -> STR_25(9), STR_24(12), STR_23(13), STR_22(10), 
  7127 ;;		 -> STR_21(9), 
  7128 ;; Return value:  Size  Location     Type
  7129 ;;                  1    wreg      unsigned char 
  7130 ;; Registers used:
  7131 ;;		wreg, fsr0l, fsr0h, status,2, status,0, btemp+1, pclath, cstack
  7132 ;; Tracked objects:
  7133 ;;		On entry : 0/0
  7134 ;;		On exit  : 0/0
  7135 ;;		Unchanged: 0/0
  7136 ;; Data sizes:     COMMON   BANK0   BANK1   BANK3   BANK2
  7137 ;;      Params:         1       0       0       0       0
  7138 ;;      Locals:         0      11       0       0       0
  7139 ;;      Temps:          0       4       0       0       0
  7140 ;;      Totals:         1      15       0       0       0
  7141 ;;Total ram usage:       16 bytes
  7142 ;; Hardware stack levels used: 1
  7143 ;; Hardware stack levels required when called: 3
  7144 ;; This function calls:
  7145 ;;		_clcd_print
  7146 ;;		_clear_display
  7147 ;; This function is called by:
  7148 ;;		_main
  7149 ;; This function uses a non-reentrant model
  7150 ;;
  7151                           
  7152     06D8                     _display_menu:	
  7153                           ;psect for function _display_menu
  7154                           
  7155                           
  7156                           ;incstack = 0
  7157                           ; Regs used in _display_menu: [wreg-fsr0h+status,2+status,0+btemp+1+pclath+cstack]
  7158                           ;display_menu@key stored from wreg
  7159     06D8  1283               	bcf	3,5	;RP0=0, select bank0
  7160     06D9  1303               	bcf	3,6	;RP1=0, select bank0
  7161     06DA  00AE               	movwf	display_menu@key
  7162     06DB                     l4179:
  7163                           
  7164                           ;c_b_b.c: 156: char display_menu(unsigned char key , unsigned char * reset);c_b_b.c: 157
      +                          : {;c_b_b.c: 158:     char *menu[] = {"view log","clear log","download log","change pswd
      +                          ","set time"};
  7165     06DB  3024               	movlw	display_menu@menu& (0+255)
  7166     06DC  0084               	movwf	4
  7167     06DD  30DF               	movlw	low display_menu@F1279
  7168     06DE  00A0               	movwf	??_display_menu
  7169     06DF  0804               	movf	4,w
  7170     06E0  00A1               	movwf	??_display_menu+1
  7171     06E1  300A               	movlw	10
  7172     06E2  00A2               	movwf	??_display_menu+2
  7173     06E3                     u3610:
  7174     06E3  0820               	movf	??_display_menu,w
  7175     06E4  0084               	movwf	4
  7176     06E5  1383               	bcf	3,7	;select IRP bank1
  7177     06E6  0800               	movf	0,w
  7178     06E7  00A3               	movwf	??_display_menu+3
  7179     06E8  0AA0               	incf	??_display_menu,f
  7180     06E9  0821               	movf	??_display_menu+1,w
  7181     06EA  0084               	movwf	4
  7182     06EB  0823               	movf	??_display_menu+3,w
  7183     06EC  0080               	movwf	0
  7184     06ED  0AA1               	incf	??_display_menu+1,f
  7185     06EE  0BA2               	decfsz	??_display_menu+2,f
  7186     06EF  2EE3               	goto	u3610
  7187     06F0                     l4181:
  7188                           
  7189                           ;c_b_b.c: 159:     if(*reset == 0x0C)
  7190     06F0  0879               	movf	display_menu@reset,w
  7191     06F1  0084               	movwf	4
  7192     06F2  300C               	movlw	12
  7193     06F3  0600               	xorwf	0,w
  7194     06F4  1D03               	btfss	3,2
  7195     06F5  2EF7               	goto	u3621
  7196     06F6  2EF8               	goto	u3620
  7197     06F7                     u3621:
  7198     06F7  2F05               	goto	l4191
  7199     06F8                     u3620:
  7200     06F8                     l4183:
  7201                           
  7202                           ;c_b_b.c: 160:     {;c_b_b.c: 161:         key = 0xFF;
  7203     06F8  30FF               	movlw	255
  7204     06F9  00AE               	movwf	display_menu@key
  7205     06FA                     l4185:
  7206                           
  7207                           ;c_b_b.c: 162:         menu_pos = 0;
  7208     06FA  01DD               	clrf	_menu_pos
  7209     06FB                     l4187:
  7210                           
  7211                           ;c_b_b.c: 163:         clear_display();
  7212     06FB  160A  118A  25A6  120A  118A  	fcall	_clear_display
  7213     0700                     l4189:
  7214                           
  7215                           ;c_b_b.c: 164:         *reset = 0x0B;
  7216     0700  0879               	movf	display_menu@reset,w
  7217     0701  0084               	movwf	4
  7218     0702  300B               	movlw	11
  7219     0703  1383               	bcf	3,7	;select IRP bank0
  7220     0704  0080               	movwf	0
  7221     0705                     l4191:
  7222                           
  7223                           ;c_b_b.c: 166:     if(key == 0x2F && menu_pos<=3)
  7224     0705  302F               	movlw	47
  7225     0706  1283               	bcf	3,5	;RP0=0, select bank0
  7226     0707  1303               	bcf	3,6	;RP1=0, select bank0
  7227     0708  062E               	xorwf	display_menu@key,w
  7228     0709  1D03               	btfss	3,2
  7229     070A  2F0C               	goto	u3631
  7230     070B  2F0D               	goto	u3630
  7231     070C                     u3631:
  7232     070C  2F1D               	goto	l4199
  7233     070D                     u3630:
  7234     070D                     l4193:
  7235     070D  3004               	movlw	4
  7236     070E  025D               	subwf	_menu_pos,w
  7237     070F  1803               	skipnc
  7238     0710  2F12               	goto	u3641
  7239     0711  2F13               	goto	u3640
  7240     0712                     u3641:
  7241     0712  2F1D               	goto	l4199
  7242     0713                     u3640:
  7243     0713                     l4195:
  7244                           
  7245                           ;c_b_b.c: 167:     {;c_b_b.c: 168:         menu_pos++;
  7246     0713  3001               	movlw	1
  7247     0714  00FF               	movwf	btemp+1
  7248     0715  087F               	movf	btemp+1,w
  7249     0716  07DD               	addwf	_menu_pos,f
  7250     0717                     l4197:
  7251                           
  7252                           ;c_b_b.c: 169:         clear_display();
  7253     0717  160A  118A  25A6  120A  118A  	fcall	_clear_display
  7254                           
  7255                           ;c_b_b.c: 170:     }
  7256     071C  2F2B               	goto	l4207
  7257     071D                     l4199:
  7258     071D  3037               	movlw	55
  7259     071E  062E               	xorwf	display_menu@key,w
  7260     071F  1D03               	btfss	3,2
  7261     0720  2F22               	goto	u3651
  7262     0721  2F23               	goto	u3650
  7263     0722                     u3651:
  7264     0722  2F2B               	goto	l4207
  7265     0723                     u3650:
  7266     0723                     l4201:
  7267     0723  085D               	movf	_menu_pos,w
  7268     0724  1903               	btfsc	3,2
  7269     0725  2F27               	goto	u3661
  7270     0726  2F28               	goto	u3660
  7271     0727                     u3661:
  7272     0727  2F2B               	goto	l4207
  7273     0728                     u3660:
  7274     0728                     l4203:
  7275                           
  7276                           ;c_b_b.c: 172:     {;c_b_b.c: 173:         menu_pos--;
  7277     0728  3001               	movlw	1
  7278     0729  02DD               	subwf	_menu_pos,f
  7279     072A  2F17               	goto	l4197
  7280     072B                     l4207:
  7281                           
  7282                           ;c_b_b.c: 176:     if(menu_pos < 4)
  7283     072B  3004               	movlw	4
  7284     072C  1283               	bcf	3,5	;RP0=0, select bank0
  7285     072D  1303               	bcf	3,6	;RP1=0, select bank0
  7286     072E  025D               	subwf	_menu_pos,w
  7287     072F  1803               	skipnc
  7288     0730  2F32               	goto	u3671
  7289     0731  2F33               	goto	u3670
  7290     0732                     u3671:
  7291     0732  2F6A               	goto	l4211
  7292     0733                     u3670:
  7293     0733                     l4209:
  7294                           
  7295                           ;c_b_b.c: 177:     {;c_b_b.c: 178:         clcd_print("-> " , (0x80 + 0));
  7296     0733  3051               	movlw	low (STR_26| (0+32768))
  7297     0734  00F6               	movwf	clcd_print@str
  7298     0735  3085               	movlw	high (STR_26| (0+32768))
  7299     0736  00F7               	movwf	clcd_print@str+1
  7300     0737  3080               	movlw	128
  7301     0738  00F8               	movwf	clcd_print@addr
  7302     0739  160A  118A  27A2  120A  118A  	fcall	_clcd_print
  7303                           
  7304                           ;c_b_b.c: 179:         clcd_print(menu[menu_pos] , (0x80 + 3));
  7305     073E  1283               	bcf	3,5	;RP0=0, select bank0
  7306     073F  1303               	bcf	3,6	;RP1=0, select bank0
  7307     0740  085D               	movf	_menu_pos,w
  7308     0741  00A0               	movwf	??_display_menu
  7309     0742  0720               	addwf	??_display_menu,w
  7310     0743  3E24               	addlw	(low (display_menu@menu| 0))& (0+255)
  7311     0744  0084               	movwf	4
  7312     0745  1383               	bcf	3,7	;select IRP bank0
  7313     0746  0800               	movf	0,w
  7314     0747  00F6               	movwf	clcd_print@str
  7315     0748  0A84               	incf	4,f
  7316     0749  0800               	movf	0,w
  7317     074A  0384               	decf	4,f
  7318     074B  00F7               	movwf	clcd_print@str+1
  7319     074C  3083               	movlw	131
  7320     074D  00F8               	movwf	clcd_print@addr
  7321     074E  160A  118A  27A2  120A  118A  	fcall	_clcd_print
  7322                           
  7323                           ;c_b_b.c: 180:         clcd_print(menu[menu_pos+1] , (0xC0 + 3));
  7324     0753  1283               	bcf	3,5	;RP0=0, select bank0
  7325     0754  1303               	bcf	3,6	;RP1=0, select bank0
  7326     0755  085D               	movf	_menu_pos,w
  7327     0756  00A0               	movwf	??_display_menu
  7328     0757  0720               	addwf	??_display_menu,w
  7329     0758  3E02               	addlw	2
  7330     0759  3E24               	addlw	(low (display_menu@menu| 0))& (0+255)
  7331     075A  0084               	movwf	4
  7332     075B  1383               	bcf	3,7	;select IRP bank0
  7333     075C  0800               	movf	0,w
  7334     075D  00F6               	movwf	clcd_print@str
  7335     075E  0A84               	incf	4,f
  7336     075F  0800               	movf	0,w
  7337     0760  0384               	decf	4,f
  7338     0761  00F7               	movwf	clcd_print@str+1
  7339     0762  30C3               	movlw	195
  7340     0763  00F8               	movwf	clcd_print@addr
  7341     0764  160A  118A  27A2  120A  118A  	fcall	_clcd_print
  7342                           
  7343                           ;c_b_b.c: 181:     }
  7344     0769  2FA6               	goto	l370
  7345     076A                     l4211:
  7346     076A  3004               	movlw	4
  7347     076B  065D               	xorwf	_menu_pos,w
  7348     076C  1D03               	btfss	3,2
  7349     076D  2F6F               	goto	u3681
  7350     076E  2F70               	goto	u3680
  7351     076F                     u3681:
  7352     076F  2FA6               	goto	l370
  7353     0770                     u3680:
  7354     0770                     l4213:
  7355                           
  7356                           ;c_b_b.c: 183:     {;c_b_b.c: 184:         clcd_print("-> " , (0xC0 + 0));
  7357     0770  3051               	movlw	low (STR_26| (0+32768))
  7358     0771  00F6               	movwf	clcd_print@str
  7359     0772  3085               	movlw	high (STR_26| (0+32768))
  7360     0773  00F7               	movwf	clcd_print@str+1
  7361     0774  30C0               	movlw	192
  7362     0775  00F8               	movwf	clcd_print@addr
  7363     0776  160A  118A  27A2  120A  118A  	fcall	_clcd_print
  7364                           
  7365                           ;c_b_b.c: 185:         clcd_print(menu[menu_pos-1] , (0x80 + 3));
  7366     077B  1283               	bcf	3,5	;RP0=0, select bank0
  7367     077C  1303               	bcf	3,6	;RP1=0, select bank0
  7368     077D  085D               	movf	_menu_pos,w
  7369     077E  00A0               	movwf	??_display_menu
  7370     077F  0720               	addwf	??_display_menu,w
  7371     0780  3EFE               	addlw	254
  7372     0781  3E24               	addlw	(low (display_menu@menu| 0))& (0+255)
  7373     0782  0084               	movwf	4
  7374     0783  1383               	bcf	3,7	;select IRP bank0
  7375     0784  0800               	movf	0,w
  7376     0785  00F6               	movwf	clcd_print@str
  7377     0786  0A84               	incf	4,f
  7378     0787  0800               	movf	0,w
  7379     0788  0384               	decf	4,f
  7380     0789  00F7               	movwf	clcd_print@str+1
  7381     078A  3083               	movlw	131
  7382     078B  00F8               	movwf	clcd_print@addr
  7383     078C  160A  118A  27A2  120A  118A  	fcall	_clcd_print
  7384                           
  7385                           ;c_b_b.c: 186:         clcd_print(menu[menu_pos] , (0xC0 + 3));
  7386     0791  1283               	bcf	3,5	;RP0=0, select bank0
  7387     0792  1303               	bcf	3,6	;RP1=0, select bank0
  7388     0793  085D               	movf	_menu_pos,w
  7389     0794  00A0               	movwf	??_display_menu
  7390     0795  0720               	addwf	??_display_menu,w
  7391     0796  3E24               	addlw	(low (display_menu@menu| 0))& (0+255)
  7392     0797  0084               	movwf	4
  7393     0798  1383               	bcf	3,7	;select IRP bank0
  7394     0799  0800               	movf	0,w
  7395     079A  00F6               	movwf	clcd_print@str
  7396     079B  0A84               	incf	4,f
  7397     079C  0800               	movf	0,w
  7398     079D  0384               	decf	4,f
  7399     079E  00F7               	movwf	clcd_print@str+1
  7400     079F  30C3               	movlw	195
  7401     07A0  00F8               	movwf	clcd_print@addr
  7402     07A1  160A  118A  27A2  120A  118A  	fcall	_clcd_print
  7403     07A6                     l370:
  7404     07A6  0008               	return
  7405     07A7                     __end_of_display_menu:
  7406                           
  7407                           	psect	text31
  7408     0AD8                     __ptext31:	
  7409 ;; *************** function _display_dashboard *****************
  7410 ;; Defined at:
  7411 ;;		line 32 in file "c_b_b.c"
  7412 ;; Parameters:    Size  Location     Type
  7413 ;;  event           1    wreg     PTR unsigned char 
  7414 ;;		 -> main@event(3), 
  7415 ;;  speed           1    2[BANK0 ] unsigned char 
  7416 ;; Auto vars:     Size  Location     Type
  7417 ;;  event           1    5[BANK0 ] PTR unsigned char 
  7418 ;;		 -> main@event(3), 
  7419 ;; Return value:  Size  Location     Type
  7420 ;;                  1    wreg      void 
  7421 ;; Registers used:
  7422 ;;		wreg, fsr0l, fsr0h, status,2, status,0, btemp+1, pclath, cstack
  7423 ;; Tracked objects:
  7424 ;;		On entry : 0/0
  7425 ;;		On exit  : 0/0
  7426 ;;		Unchanged: 0/0
  7427 ;; Data sizes:     COMMON   BANK0   BANK1   BANK3   BANK2
  7428 ;;      Params:         0       1       0       0       0
  7429 ;;      Locals:         0       1       0       0       0
  7430 ;;      Temps:          0       2       0       0       0
  7431 ;;      Totals:         0       4       0       0       0
  7432 ;;Total ram usage:        4 bytes
  7433 ;; Hardware stack levels used: 1
  7434 ;; Hardware stack levels required when called: 6
  7435 ;; This function calls:
  7436 ;;		___awdiv
  7437 ;;		___awmod
  7438 ;;		_clcd_print
  7439 ;;		_clcd_putch
  7440 ;;		_get_time
  7441 ;; This function is called by:
  7442 ;;		_main
  7443 ;; This function uses a non-reentrant model
  7444 ;;
  7445                           
  7446     0AD8                     _display_dashboard:	
  7447                           ;psect for function _display_dashboard
  7448                           
  7449                           
  7450                           ;incstack = 0
  7451                           ; Regs used in _display_dashboard: [wreg-fsr0h+status,2+status,0+btemp+1+pclath+cstack]
  7452                           ;display_dashboard@event stored from wreg
  7453     0AD8  1283               	bcf	3,5	;RP0=0, select bank0
  7454     0AD9  1303               	bcf	3,6	;RP1=0, select bank0
  7455     0ADA  00A5               	movwf	display_dashboard@event
  7456     0ADB                     l4069:
  7457                           
  7458                           ;c_b_b.c: 32: void display_dashboard(unsigned char *event,unsigned char speed);c_b_b.c: 
      +                          33: {;c_b_b.c: 34:     clcd_print("TIME      EV  SP",(0x80 + 0));
  7459     0ADB  3011               	movlw	low (STR_15| (0+32768))
  7460     0ADC  00F6               	movwf	clcd_print@str
  7461     0ADD  3084               	movlw	high (STR_15| (0+32768))
  7462     0ADE  00F7               	movwf	clcd_print@str+1
  7463     0ADF  3080               	movlw	128
  7464     0AE0  00F8               	movwf	clcd_print@addr
  7465     0AE1  160A  118A  27A2  120A  158A  	fcall	_clcd_print
  7466     0AE6                     l4071:
  7467                           
  7468                           ;c_b_b.c: 35:     get_time();
  7469     0AE6  120A  158A  2404  120A  158A  	fcall	_get_time
  7470     0AEB                     l4073:
  7471                           
  7472                           ;c_b_b.c: 36:     clcd_print(time, (0xC0 + 0));
  7473     0AEB  30BC               	movlw	(low (_time| 0))& (0+255)
  7474     0AEC  00F6               	movwf	clcd_print@str
  7475     0AED  3000               	movlw	0
  7476     0AEE  00F7               	movwf	clcd_print@str+1
  7477     0AEF  30C0               	movlw	192
  7478     0AF0  00F8               	movwf	clcd_print@addr
  7479     0AF1  160A  118A  27A2  120A  158A  	fcall	_clcd_print
  7480     0AF6                     l4075:
  7481                           
  7482                           ;c_b_b.c: 37:     clcd_print(event , (0xC0 + 10));
  7483     0AF6  1283               	bcf	3,5	;RP0=0, select bank0
  7484     0AF7  1303               	bcf	3,6	;RP1=0, select bank0
  7485     0AF8  0825               	movf	display_dashboard@event,w
  7486     0AF9  00F6               	movwf	clcd_print@str
  7487     0AFA  3000               	movlw	0
  7488     0AFB  00F7               	movwf	clcd_print@str+1
  7489     0AFC  30CA               	movlw	202
  7490     0AFD  00F8               	movwf	clcd_print@addr
  7491     0AFE  160A  118A  27A2  120A  158A  	fcall	_clcd_print
  7492     0B03                     l4077:
  7493                           
  7494                           ;c_b_b.c: 38:     clcd_putch((speed/10)+'0',(0xC0 + 14));
  7495     0B03  30CE               	movlw	206
  7496     0B04  1283               	bcf	3,5	;RP0=0, select bank0
  7497     0B05  1303               	bcf	3,6	;RP1=0, select bank0
  7498     0B06  00A0               	movwf	clcd_putch@addr
  7499     0B07  300A               	movlw	10
  7500     0B08  00F2               	movwf	___awdiv@divisor
  7501     0B09  3000               	movlw	0
  7502     0B0A  00F3               	movwf	___awdiv@divisor+1
  7503     0B0B  0822               	movf	display_dashboard@speed,w
  7504     0B0C  00A3               	movwf	??_display_dashboard
  7505     0B0D  01A4               	clrf	??_display_dashboard+1
  7506     0B0E  0823               	movf	??_display_dashboard,w
  7507     0B0F  00F4               	movwf	___awdiv@dividend
  7508     0B10  0824               	movf	??_display_dashboard+1,w
  7509     0B11  00F5               	movwf	___awdiv@dividend+1
  7510     0B12  120A  158A  239D  120A  158A  	fcall	___awdiv
  7511     0B17  0872               	movf	?___awdiv,w
  7512     0B18  3E30               	addlw	48
  7513     0B19  160A  118A  25EF  120A  158A  	fcall	_clcd_putch
  7514     0B1E                     l4079:
  7515                           
  7516                           ;c_b_b.c: 39:     clcd_putch((speed%10)+'0',(0xC0 + 15));
  7517     0B1E  30CF               	movlw	207
  7518     0B1F  1283               	bcf	3,5	;RP0=0, select bank0
  7519     0B20  1303               	bcf	3,6	;RP1=0, select bank0
  7520     0B21  00A0               	movwf	clcd_putch@addr
  7521     0B22  300A               	movlw	10
  7522     0B23  00F2               	movwf	___awmod@divisor
  7523     0B24  3000               	movlw	0
  7524     0B25  00F3               	movwf	___awmod@divisor+1
  7525     0B26  0822               	movf	display_dashboard@speed,w
  7526     0B27  00A3               	movwf	??_display_dashboard
  7527     0B28  01A4               	clrf	??_display_dashboard+1
  7528     0B29  0823               	movf	??_display_dashboard,w
  7529     0B2A  00F4               	movwf	___awmod@dividend
  7530     0B2B  0824               	movf	??_display_dashboard+1,w
  7531     0B2C  00F5               	movwf	___awmod@dividend+1
  7532     0B2D  120A  118A  27A7  120A  158A  	fcall	___awmod
  7533     0B32  0872               	movf	?___awmod,w
  7534     0B33  3E30               	addlw	48
  7535     0B34  160A  118A  25EF  120A  158A  	fcall	_clcd_putch
  7536     0B39                     l319:
  7537     0B39  0008               	return
  7538     0B3A                     __end_of_display_dashboard:
  7539                           
  7540                           	psect	text32
  7541     0C04                     __ptext32:	
  7542 ;; *************** function _get_time *****************
  7543 ;; Defined at:
  7544 ;;		line 17 in file "c_b_b.c"
  7545 ;; Parameters:    Size  Location     Type
  7546 ;;		None
  7547 ;; Auto vars:     Size  Location     Type
  7548 ;;		None
  7549 ;; Return value:  Size  Location     Type
  7550 ;;                  1    wreg      void 
  7551 ;; Registers used:
  7552 ;;		wreg, status,2, status,0, pclath, cstack
  7553 ;; Tracked objects:
  7554 ;;		On entry : 0/0
  7555 ;;		On exit  : 0/0
  7556 ;;		Unchanged: 0/0
  7557 ;; Data sizes:     COMMON   BANK0   BANK1   BANK3   BANK2
  7558 ;;      Params:         0       0       0       0       0
  7559 ;;      Locals:         0       0       0       0       0
  7560 ;;      Temps:          1       0       0       0       0
  7561 ;;      Totals:         1       0       0       0       0
  7562 ;;Total ram usage:        1 bytes
  7563 ;; Hardware stack levels used: 1
  7564 ;; Hardware stack levels required when called: 5
  7565 ;; This function calls:
  7566 ;;		_read_ds1307
  7567 ;; This function is called by:
  7568 ;;		_display_dashboard
  7569 ;;		_log_event
  7570 ;; This function uses a non-reentrant model
  7571 ;;
  7572                           
  7573     0C04                     _get_time:	
  7574                           ;psect for function _get_time
  7575                           
  7576     0C04                     l3839:	
  7577                           ;incstack = 0
  7578                           ; Regs used in _get_time: [wreg+status,2+status,0+pclath+cstack]
  7579                           
  7580                           
  7581                           ;c_b_b.c: 19:     clock_reg[0] = read_ds1307(0x02);
  7582     0C04  3002               	movlw	2
  7583     0C05  160A  118A  2720  120A  158A  	fcall	_read_ds1307
  7584     0C0A  1283               	bcf	3,5	;RP0=0, select bank0
  7585     0C0B  1303               	bcf	3,6	;RP1=0, select bank0
  7586     0C0C  00CD               	movwf	_clock_reg
  7587                           
  7588                           ;c_b_b.c: 20:     clock_reg[1] = read_ds1307(0x01);
  7589     0C0D  3001               	movlw	1
  7590     0C0E  160A  118A  2720  120A  158A  	fcall	_read_ds1307
  7591     0C13  1283               	bcf	3,5	;RP0=0, select bank0
  7592     0C14  1303               	bcf	3,6	;RP1=0, select bank0
  7593     0C15  00CE               	movwf	_clock_reg+1
  7594                           
  7595                           ;c_b_b.c: 21:     clock_reg[2] = read_ds1307(0x00);
  7596     0C16  3000               	movlw	0
  7597     0C17  160A  118A  2720  120A  158A  	fcall	_read_ds1307
  7598     0C1C  1283               	bcf	3,5	;RP0=0, select bank0
  7599     0C1D  1303               	bcf	3,6	;RP1=0, select bank0
  7600     0C1E  00CF               	movwf	_clock_reg+2
  7601     0C1F                     l3841:
  7602                           
  7603                           ;c_b_b.c: 22:     time[0] = ((clock_reg[0] >> 4) & 0x03) + '0';
  7604     0C1F  084D               	movf	_clock_reg,w
  7605     0C20  00F6               	movwf	??_get_time
  7606     0C21  3004               	movlw	4
  7607     0C22                     u3225:
  7608     0C22  1003               	clrc
  7609     0C23  0CF6               	rrf	??_get_time,f
  7610     0C24  3EFF               	addlw	-1
  7611     0C25  1D03               	skipz
  7612     0C26  2C22               	goto	u3225
  7613     0C27  0876               	movf	??_get_time,w
  7614     0C28  3903               	andlw	3
  7615     0C29  3E30               	addlw	48
  7616     0C2A  1683               	bsf	3,5	;RP0=1, select bank1
  7617     0C2B  1303               	bcf	3,6	;RP1=0, select bank1
  7618     0C2C  00BC               	movwf	_time^(0+128)
  7619     0C2D                     l3843:
  7620                           
  7621                           ;c_b_b.c: 23:     time[1] = (clock_reg[0] & 0x0F) + '0';
  7622     0C2D  1283               	bcf	3,5	;RP0=0, select bank0
  7623     0C2E  1303               	bcf	3,6	;RP1=0, select bank0
  7624     0C2F  084D               	movf	_clock_reg,w
  7625     0C30  390F               	andlw	15
  7626     0C31  3E30               	addlw	48
  7627     0C32  1683               	bsf	3,5	;RP0=1, select bank1
  7628     0C33  1303               	bcf	3,6	;RP1=0, select bank1
  7629     0C34  00BD               	movwf	(_time^(0+128)+1)
  7630     0C35                     l3845:
  7631                           
  7632                           ;c_b_b.c: 24:     time[2] = ':';
  7633     0C35  303A               	movlw	58
  7634     0C36  00BE               	movwf	(_time^(0+128)+2)
  7635     0C37                     l3847:
  7636                           
  7637                           ;c_b_b.c: 25:     time[3] = ((clock_reg[1] >> 4) & 0x07) + '0';
  7638     0C37  1283               	bcf	3,5	;RP0=0, select bank0
  7639     0C38  1303               	bcf	3,6	;RP1=0, select bank0
  7640     0C39  084E               	movf	_clock_reg+1,w
  7641     0C3A  00F6               	movwf	??_get_time
  7642     0C3B  3004               	movlw	4
  7643     0C3C                     u3235:
  7644     0C3C  1003               	clrc
  7645     0C3D  0CF6               	rrf	??_get_time,f
  7646     0C3E  3EFF               	addlw	-1
  7647     0C3F  1D03               	skipz
  7648     0C40  2C3C               	goto	u3235
  7649     0C41  0876               	movf	??_get_time,w
  7650     0C42  3907               	andlw	7
  7651     0C43  3E30               	addlw	48
  7652     0C44  1683               	bsf	3,5	;RP0=1, select bank1
  7653     0C45  1303               	bcf	3,6	;RP1=0, select bank1
  7654     0C46  00BF               	movwf	(_time^(0+128)+3)
  7655     0C47                     l3849:
  7656                           
  7657                           ;c_b_b.c: 26:     time[4] = (clock_reg[1] & 0x0F) + '0';
  7658     0C47  1283               	bcf	3,5	;RP0=0, select bank0
  7659     0C48  1303               	bcf	3,6	;RP1=0, select bank0
  7660     0C49  084E               	movf	_clock_reg+1,w
  7661     0C4A  390F               	andlw	15
  7662     0C4B  3E30               	addlw	48
  7663     0C4C  1683               	bsf	3,5	;RP0=1, select bank1
  7664     0C4D  1303               	bcf	3,6	;RP1=0, select bank1
  7665     0C4E  00C0               	movwf	(_time^(0+128)+4)
  7666     0C4F                     l3851:
  7667                           
  7668                           ;c_b_b.c: 27:     time[5] = ':';
  7669     0C4F  303A               	movlw	58
  7670     0C50  00C1               	movwf	(_time^(0+128)+5)
  7671     0C51                     l3853:
  7672                           
  7673                           ;c_b_b.c: 28:     time[6] = ((clock_reg[2] >> 4) & 0x07) + '0';
  7674     0C51  1283               	bcf	3,5	;RP0=0, select bank0
  7675     0C52  1303               	bcf	3,6	;RP1=0, select bank0
  7676     0C53  084F               	movf	_clock_reg+2,w
  7677     0C54  00F6               	movwf	??_get_time
  7678     0C55  3004               	movlw	4
  7679     0C56                     u3245:
  7680     0C56  1003               	clrc
  7681     0C57  0CF6               	rrf	??_get_time,f
  7682     0C58  3EFF               	addlw	-1
  7683     0C59  1D03               	skipz
  7684     0C5A  2C56               	goto	u3245
  7685     0C5B  0876               	movf	??_get_time,w
  7686     0C5C  3907               	andlw	7
  7687     0C5D  3E30               	addlw	48
  7688     0C5E  1683               	bsf	3,5	;RP0=1, select bank1
  7689     0C5F  1303               	bcf	3,6	;RP1=0, select bank1
  7690     0C60  00C2               	movwf	(_time^(0+128)+6)
  7691     0C61                     l3855:
  7692                           
  7693                           ;c_b_b.c: 29:     time[7] = (clock_reg[2] & 0x0F) + '0';
  7694     0C61  1283               	bcf	3,5	;RP0=0, select bank0
  7695     0C62  1303               	bcf	3,6	;RP1=0, select bank0
  7696     0C63  084F               	movf	_clock_reg+2,w
  7697     0C64  390F               	andlw	15
  7698     0C65  3E30               	addlw	48
  7699     0C66  1683               	bsf	3,5	;RP0=1, select bank1
  7700     0C67  1303               	bcf	3,6	;RP1=0, select bank1
  7701     0C68  00C3               	movwf	(_time^(0+128)+7)
  7702     0C69                     l3857:
  7703                           
  7704                           ;c_b_b.c: 30:     time[8] = '\0';
  7705     0C69  01C4               	clrf	(_time^(0+128)+8)
  7706     0C6A                     l316:
  7707     0C6A  0008               	return
  7708     0C6B                     __end_of_get_time:
  7709                           
  7710                           	psect	text33
  7711     1720                     __ptext33:	
  7712 ;; *************** function _read_ds1307 *****************
  7713 ;; Defined at:
  7714 ;;		line 24 in file "ds1307.c"
  7715 ;; Parameters:    Size  Location     Type
  7716 ;;  addr            1    wreg     unsigned char 
  7717 ;; Auto vars:     Size  Location     Type
  7718 ;;  addr            1    4[COMMON] unsigned char 
  7719 ;;  data            1    5[COMMON] unsigned char 
  7720 ;; Return value:  Size  Location     Type
  7721 ;;                  1    wreg      unsigned char 
  7722 ;; Registers used:
  7723 ;;		wreg, status,2, status,0, pclath, cstack
  7724 ;; Tracked objects:
  7725 ;;		On entry : 0/0
  7726 ;;		On exit  : 0/0
  7727 ;;		Unchanged: 0/0
  7728 ;; Data sizes:     COMMON   BANK0   BANK1   BANK3   BANK2
  7729 ;;      Params:         0       0       0       0       0
  7730 ;;      Locals:         2       0       0       0       0
  7731 ;;      Temps:          0       0       0       0       0
  7732 ;;      Totals:         2       0       0       0       0
  7733 ;;Total ram usage:        2 bytes
  7734 ;; Hardware stack levels used: 1
  7735 ;; Hardware stack levels required when called: 4
  7736 ;; This function calls:
  7737 ;;		_i2c_read
  7738 ;;		_i2c_rep_start
  7739 ;;		_i2c_start
  7740 ;;		_i2c_stop
  7741 ;;		_i2c_write
  7742 ;; This function is called by:
  7743 ;;		_init_ds1307
  7744 ;;		_get_time
  7745 ;; This function uses a non-reentrant model
  7746 ;;
  7747                           
  7748     1720                     _read_ds1307:	
  7749                           ;psect for function _read_ds1307
  7750                           
  7751                           
  7752                           ;incstack = 0
  7753                           ; Regs used in _read_ds1307: [wreg+status,2+status,0+pclath+cstack]
  7754                           ;read_ds1307@addr stored from wreg
  7755     1720  00F4               	movwf	read_ds1307@addr
  7756     1721                     l3747:
  7757                           
  7758                           ;ds1307.c: 24: unsigned char read_ds1307(unsigned char addr);ds1307.c: 25: {;ds1307.c: 2
      +                          6:     unsigned char data;;ds1307.c: 28:     i2c_start();
  7759     1721  160A  118A  2541  160A  118A  	fcall	_i2c_start
  7760                           
  7761                           ;ds1307.c: 29:     i2c_write(0b11010000);
  7762     1726  30D0               	movlw	208
  7763     1727  160A  118A  2553  160A  118A  	fcall	_i2c_write
  7764                           
  7765                           ;ds1307.c: 30:     i2c_write(addr);
  7766     172C  0874               	movf	read_ds1307@addr,w
  7767     172D  160A  118A  2553  160A  118A  	fcall	_i2c_write
  7768                           
  7769                           ;ds1307.c: 31:     i2c_rep_start();
  7770     1732  160A  118A  255E  160A  118A  	fcall	_i2c_rep_start
  7771                           
  7772                           ;ds1307.c: 32:     i2c_write(0b11010001);
  7773     1737  30D1               	movlw	209
  7774     1738  160A  118A  2553  160A  118A  	fcall	_i2c_write
  7775                           
  7776                           ;ds1307.c: 33:     data = i2c_read(0);
  7777     173D  3000               	movlw	0
  7778     173E  160A  118A  268C  160A  118A  	fcall	_i2c_read
  7779     1743  00F5               	movwf	read_ds1307@data
  7780                           
  7781                           ;ds1307.c: 34:     i2c_stop();
  7782     1744  160A  118A  254A  160A  118A  	fcall	_i2c_stop
  7783     1749                     l3749:
  7784                           
  7785                           ;ds1307.c: 36:     return data;
  7786     1749  0875               	movf	read_ds1307@data,w
  7787     174A                     l224:
  7788     174A  0008               	return
  7789     174B                     __end_of_read_ds1307:
  7790                           
  7791                           	psect	text34
  7792     155E                     __ptext34:	
  7793 ;; *************** function _i2c_rep_start *****************
  7794 ;; Defined at:
  7795 ;;		line 38 in file "i2c.c"
  7796 ;; Parameters:    Size  Location     Type
  7797 ;;		None
  7798 ;; Auto vars:     Size  Location     Type
  7799 ;;		None
  7800 ;; Return value:  Size  Location     Type
  7801 ;;                  1    wreg      void 
  7802 ;; Registers used:
  7803 ;;		wreg, status,2, status,0, pclath, cstack
  7804 ;; Tracked objects:
  7805 ;;		On entry : 0/0
  7806 ;;		On exit  : 0/0
  7807 ;;		Unchanged: 0/0
  7808 ;; Data sizes:     COMMON   BANK0   BANK1   BANK3   BANK2
  7809 ;;      Params:         0       0       0       0       0
  7810 ;;      Locals:         0       0       0       0       0
  7811 ;;      Temps:          0       0       0       0       0
  7812 ;;      Totals:         0       0       0       0       0
  7813 ;;Total ram usage:        0 bytes
  7814 ;; Hardware stack levels used: 1
  7815 ;; Hardware stack levels required when called: 3
  7816 ;; This function calls:
  7817 ;;		_i2c_start
  7818 ;;		_i2c_stop
  7819 ;; This function is called by:
  7820 ;;		_read_ds1307
  7821 ;;		_eeprom_at24C04_read
  7822 ;; This function uses a non-reentrant model
  7823 ;;
  7824                           
  7825     155E                     _i2c_rep_start:	
  7826                           ;psect for function _i2c_rep_start
  7827                           
  7828     155E                     l3679:	
  7829                           ;incstack = 0
  7830                           ; Regs used in _i2c_rep_start: [wreg+status,2+status,0+pclath+cstack]
  7831                           
  7832                           
  7833                           ;i2c.c: 40:     i2c_stop();
  7834     155E  160A  118A  254A  160A  118A  	fcall	_i2c_stop
  7835                           
  7836                           ;i2c.c: 41:     i2c_start();
  7837     1563  160A  118A  2541  160A  118A  	fcall	_i2c_start
  7838     1568                     l268:
  7839     1568  0008               	return
  7840     1569                     __end_of_i2c_rep_start:
  7841                           
  7842                           	psect	text35
  7843     168C                     __ptext35:	
  7844 ;; *************** function _i2c_read *****************
  7845 ;; Defined at:
  7846 ;;		line 51 in file "i2c.c"
  7847 ;; Parameters:    Size  Location     Type
  7848 ;;  ack             1    wreg     unsigned char 
  7849 ;; Auto vars:     Size  Location     Type
  7850 ;;  ack             1    2[COMMON] unsigned char 
  7851 ;;  data            1    3[COMMON] unsigned char 
  7852 ;; Return value:  Size  Location     Type
  7853 ;;                  1    wreg      unsigned char 
  7854 ;; Registers used:
  7855 ;;		wreg, status,2, status,0, pclath, cstack
  7856 ;; Tracked objects:
  7857 ;;		On entry : 0/0
  7858 ;;		On exit  : 0/0
  7859 ;;		Unchanged: 0/0
  7860 ;; Data sizes:     COMMON   BANK0   BANK1   BANK3   BANK2
  7861 ;;      Params:         0       0       0       0       0
  7862 ;;      Locals:         2       0       0       0       0
  7863 ;;      Temps:          0       0       0       0       0
  7864 ;;      Totals:         2       0       0       0       0
  7865 ;;Total ram usage:        2 bytes
  7866 ;; Hardware stack levels used: 1
  7867 ;; Hardware stack levels required when called: 2
  7868 ;; This function calls:
  7869 ;;		_i2c_wait_for_idle
  7870 ;; This function is called by:
  7871 ;;		_read_ds1307
  7872 ;;		_eeprom_at24C04_read
  7873 ;; This function uses a non-reentrant model
  7874 ;;
  7875                           
  7876     168C                     _i2c_read:	
  7877                           ;psect for function _i2c_read
  7878                           
  7879                           
  7880                           ;incstack = 0
  7881                           ; Regs used in _i2c_read: [wreg+status,2+status,0+pclath+cstack]
  7882                           ;i2c_read@ack stored from wreg
  7883     168C  00F2               	movwf	i2c_read@ack
  7884     168D                     l3681:
  7885                           
  7886                           ;i2c.c: 51: unsigned char i2c_read(unsigned char ack);i2c.c: 52: {;i2c.c: 53:     unsign
      +                          ed char data;;i2c.c: 55:     i2c_wait_for_idle();
  7887     168D  160A  118A  258C  160A  118A  	fcall	_i2c_wait_for_idle
  7888     1692                     l3683:
  7889                           
  7890                           ;i2c.c: 56:     RCEN = 1;
  7891     1692  1683               	bsf	3,5	;RP0=1, select bank1
  7892     1693  1303               	bcf	3,6	;RP1=0, select bank1
  7893     1694  1591               	bsf	17,3	;volatile
  7894                           
  7895                           ;i2c.c: 58:     i2c_wait_for_idle();
  7896     1695  160A  118A  258C  160A  118A  	fcall	_i2c_wait_for_idle
  7897     169A                     l3685:
  7898                           
  7899                           ;i2c.c: 59:     data = SSPBUF;
  7900     169A  1283               	bcf	3,5	;RP0=0, select bank0
  7901     169B  1303               	bcf	3,6	;RP1=0, select bank0
  7902     169C  0813               	movf	19,w	;volatile
  7903     169D  00F3               	movwf	i2c_read@data
  7904     169E                     l3687:
  7905                           
  7906                           ;i2c.c: 61:     if (ack == 1)
  7907     169E  0372               	decf	i2c_read@ack,w
  7908     169F  1D03               	btfss	3,2
  7909     16A0  2EA2               	goto	u3081
  7910     16A1  2EA3               	goto	u3080
  7911     16A2                     u3081:
  7912     16A2  2EA7               	goto	l274
  7913     16A3                     u3080:
  7914     16A3                     l3689:
  7915                           
  7916                           ;i2c.c: 62:     {;i2c.c: 63:         ACKDT = 1;
  7917     16A3  1683               	bsf	3,5	;RP0=1, select bank1
  7918     16A4  1303               	bcf	3,6	;RP1=0, select bank1
  7919     16A5  1691               	bsf	17,5	;volatile
  7920                           
  7921                           ;i2c.c: 64:     }
  7922     16A6  2EAA               	goto	l275
  7923     16A7                     l274:	
  7924                           ;i2c.c: 65:     else
  7925                           
  7926                           
  7927                           ;i2c.c: 66:     {;i2c.c: 67:         ACKDT = 0;
  7928     16A7  1683               	bsf	3,5	;RP0=1, select bank1
  7929     16A8  1303               	bcf	3,6	;RP1=0, select bank1
  7930     16A9  1291               	bcf	17,5	;volatile
  7931     16AA                     l275:	
  7932                           ;i2c.c: 68:     }
  7933                           
  7934                           
  7935                           ;i2c.c: 70:     ACKEN = 1;
  7936     16AA  1611               	bsf	17,4	;volatile
  7937     16AB                     l3691:
  7938                           
  7939                           ;i2c.c: 72:     return data;
  7940     16AB  0873               	movf	i2c_read@data,w
  7941     16AC                     l276:
  7942     16AC  0008               	return
  7943     16AD                     __end_of_i2c_read:
  7944                           
  7945                           	psect	text36
  7946     07A7                     __ptext36:	
  7947 ;; *************** function ___awmod *****************
  7948 ;; Defined at:
  7949 ;;		line 5 in file "C:\Program Files\Microchip\xc8\v2.45\pic\sources\c99\common\awmod.c"
  7950 ;; Parameters:    Size  Location     Type
  7951 ;;  divisor         2    2[COMMON] int 
  7952 ;;  dividend        2    4[COMMON] int 
  7953 ;; Auto vars:     Size  Location     Type
  7954 ;;  sign            1    7[COMMON] unsigned char 
  7955 ;;  counter         1    6[COMMON] unsigned char 
  7956 ;; Return value:  Size  Location     Type
  7957 ;;                  2    2[COMMON] int 
  7958 ;; Registers used:
  7959 ;;		wreg, status,2, status,0, btemp+1
  7960 ;; Tracked objects:
  7961 ;;		On entry : 0/0
  7962 ;;		On exit  : 0/0
  7963 ;;		Unchanged: 0/0
  7964 ;; Data sizes:     COMMON   BANK0   BANK1   BANK3   BANK2
  7965 ;;      Params:         4       0       0       0       0
  7966 ;;      Locals:         2       0       0       0       0
  7967 ;;      Temps:          0       0       0       0       0
  7968 ;;      Totals:         6       0       0       0       0
  7969 ;;Total ram usage:        6 bytes
  7970 ;; Hardware stack levels used: 1
  7971 ;; Hardware stack levels required when called: 1
  7972 ;; This function calls:
  7973 ;;		Nothing
  7974 ;; This function is called by:
  7975 ;;		_display_dashboard
  7976 ;;		_log_event
  7977 ;;		_login
  7978 ;;		_view_log
  7979 ;; This function uses a non-reentrant model
  7980 ;;
  7981                           
  7982     07A7                     ___awmod:	
  7983                           ;psect for function ___awmod
  7984                           
  7985     07A7                     l3953:	
  7986                           ;incstack = 0
  7987                           ; Regs used in ___awmod: [wreg+status,2+status,0+btemp+1]
  7988                           
  7989     07A7  01F7               	clrf	___awmod@sign
  7990     07A8                     l3955:
  7991     07A8  1FF5               	btfss	___awmod@dividend+1,7
  7992     07A9  2FAB               	goto	u3371
  7993     07AA  2FAC               	goto	u3370
  7994     07AB                     u3371:
  7995     07AB  2FB3               	goto	l3961
  7996     07AC                     u3370:
  7997     07AC                     l3957:
  7998     07AC  09F4               	comf	___awmod@dividend,f
  7999     07AD  09F5               	comf	___awmod@dividend+1,f
  8000     07AE  0AF4               	incf	___awmod@dividend,f
  8001     07AF  1903               	skipnz
  8002     07B0  0AF5               	incf	___awmod@dividend+1,f
  8003     07B1                     l3959:
  8004     07B1  01F7               	clrf	___awmod@sign
  8005     07B2  0AF7               	incf	___awmod@sign,f
  8006     07B3                     l3961:
  8007     07B3  1FF3               	btfss	___awmod@divisor+1,7
  8008     07B4  2FB6               	goto	u3381
  8009     07B5  2FB7               	goto	u3380
  8010     07B6                     u3381:
  8011     07B6  2FBC               	goto	l3965
  8012     07B7                     u3380:
  8013     07B7                     l3963:
  8014     07B7  09F2               	comf	___awmod@divisor,f
  8015     07B8  09F3               	comf	___awmod@divisor+1,f
  8016     07B9  0AF2               	incf	___awmod@divisor,f
  8017     07BA  1903               	skipnz
  8018     07BB  0AF3               	incf	___awmod@divisor+1,f
  8019     07BC                     l3965:
  8020     07BC  0872               	movf	___awmod@divisor,w
  8021     07BD  0473               	iorwf	___awmod@divisor+1,w
  8022     07BE  1903               	btfsc	3,2
  8023     07BF  2FC1               	goto	u3391
  8024     07C0  2FC2               	goto	u3390
  8025     07C1                     u3391:
  8026     07C1  2FF1               	goto	l3983
  8027     07C2                     u3390:
  8028     07C2                     l3967:
  8029     07C2  01F6               	clrf	___awmod@counter
  8030     07C3  0AF6               	incf	___awmod@counter,f
  8031     07C4  2FD0               	goto	l3973
  8032     07C5                     l3969:
  8033     07C5  3001               	movlw	1
  8034     07C6                     u3405:
  8035     07C6  1003               	clrc
  8036     07C7  0DF2               	rlf	___awmod@divisor,f
  8037     07C8  0DF3               	rlf	___awmod@divisor+1,f
  8038     07C9  3EFF               	addlw	-1
  8039     07CA  1D03               	skipz
  8040     07CB  2FC6               	goto	u3405
  8041     07CC                     l3971:
  8042     07CC  3001               	movlw	1
  8043     07CD  00FF               	movwf	btemp+1
  8044     07CE  087F               	movf	btemp+1,w
  8045     07CF  07F6               	addwf	___awmod@counter,f
  8046     07D0                     l3973:
  8047     07D0  1FF3               	btfss	___awmod@divisor+1,7
  8048     07D1  2FD3               	goto	u3411
  8049     07D2  2FD4               	goto	u3410
  8050     07D3                     u3411:
  8051     07D3  2FC5               	goto	l3969
  8052     07D4                     u3410:
  8053     07D4                     l3975:
  8054     07D4  0873               	movf	___awmod@divisor+1,w
  8055     07D5  0275               	subwf	___awmod@dividend+1,w
  8056     07D6  1D03               	skipz
  8057     07D7  2FDA               	goto	u3425
  8058     07D8  0872               	movf	___awmod@divisor,w
  8059     07D9  0274               	subwf	___awmod@dividend,w
  8060     07DA                     u3425:
  8061     07DA  1C03               	skipc
  8062     07DB  2FDD               	goto	u3421
  8063     07DC  2FDE               	goto	u3420
  8064     07DD                     u3421:
  8065     07DD  2FE4               	goto	l3979
  8066     07DE                     u3420:
  8067     07DE                     l3977:
  8068     07DE  0872               	movf	___awmod@divisor,w
  8069     07DF  02F4               	subwf	___awmod@dividend,f
  8070     07E0  0873               	movf	___awmod@divisor+1,w
  8071     07E1  1C03               	skipc
  8072     07E2  03F5               	decf	___awmod@dividend+1,f
  8073     07E3  02F5               	subwf	___awmod@dividend+1,f
  8074     07E4                     l3979:
  8075     07E4  3001               	movlw	1
  8076     07E5                     u3435:
  8077     07E5  1003               	clrc
  8078     07E6  0CF3               	rrf	___awmod@divisor+1,f
  8079     07E7  0CF2               	rrf	___awmod@divisor,f
  8080     07E8  3EFF               	addlw	-1
  8081     07E9  1D03               	skipz
  8082     07EA  2FE5               	goto	u3435
  8083     07EB                     l3981:
  8084     07EB  3001               	movlw	1
  8085     07EC  02F6               	subwf	___awmod@counter,f
  8086     07ED  1D03               	btfss	3,2
  8087     07EE  2FF0               	goto	u3441
  8088     07EF  2FF1               	goto	u3440
  8089     07F0                     u3441:
  8090     07F0  2FD4               	goto	l3975
  8091     07F1                     u3440:
  8092     07F1                     l3983:
  8093     07F1  0877               	movf	___awmod@sign,w
  8094     07F2  1903               	btfsc	3,2
  8095     07F3  2FF5               	goto	u3451
  8096     07F4  2FF6               	goto	u3450
  8097     07F5                     u3451:
  8098     07F5  2FFB               	goto	l3987
  8099     07F6                     u3450:
  8100     07F6                     l3985:
  8101     07F6  09F4               	comf	___awmod@dividend,f
  8102     07F7  09F5               	comf	___awmod@dividend+1,f
  8103     07F8  0AF4               	incf	___awmod@dividend,f
  8104     07F9  1903               	skipnz
  8105     07FA  0AF5               	incf	___awmod@dividend+1,f
  8106     07FB                     l3987:
  8107     07FB  0875               	movf	___awmod@dividend+1,w
  8108     07FC  00F3               	movwf	?___awmod+1
  8109     07FD  0874               	movf	___awmod@dividend,w
  8110     07FE  00F2               	movwf	?___awmod
  8111     07FF                     l832:
  8112     07FF  0008               	return
  8113     0800                     __end_of___awmod:
  8114                           
  8115                           	psect	text37
  8116     0B9D                     __ptext37:	
  8117 ;; *************** function ___awdiv *****************
  8118 ;; Defined at:
  8119 ;;		line 5 in file "C:\Program Files\Microchip\xc8\v2.45\pic\sources\c99\common\awdiv.c"
  8120 ;; Parameters:    Size  Location     Type
  8121 ;;  divisor         2    2[COMMON] int 
  8122 ;;  dividend        2    4[COMMON] int 
  8123 ;; Auto vars:     Size  Location     Type
  8124 ;;  quotient        2    8[COMMON] int 
  8125 ;;  sign            1    7[COMMON] unsigned char 
  8126 ;;  counter         1    6[COMMON] unsigned char 
  8127 ;; Return value:  Size  Location     Type
  8128 ;;                  2    2[COMMON] int 
  8129 ;; Registers used:
  8130 ;;		wreg, status,2, status,0, btemp+1
  8131 ;; Tracked objects:
  8132 ;;		On entry : 0/0
  8133 ;;		On exit  : 0/0
  8134 ;;		Unchanged: 0/0
  8135 ;; Data sizes:     COMMON   BANK0   BANK1   BANK3   BANK2
  8136 ;;      Params:         4       0       0       0       0
  8137 ;;      Locals:         4       0       0       0       0
  8138 ;;      Temps:          0       0       0       0       0
  8139 ;;      Totals:         8       0       0       0       0
  8140 ;;Total ram usage:        8 bytes
  8141 ;; Hardware stack levels used: 1
  8142 ;; Hardware stack levels required when called: 1
  8143 ;; This function calls:
  8144 ;;		Nothing
  8145 ;; This function is called by:
  8146 ;;		_display_dashboard
  8147 ;;		_log_event
  8148 ;;		_login
  8149 ;; This function uses a non-reentrant model
  8150 ;;
  8151                           
  8152     0B9D                     ___awdiv:	
  8153                           ;psect for function ___awdiv
  8154                           
  8155     0B9D                     l3909:	
  8156                           ;incstack = 0
  8157                           ; Regs used in ___awdiv: [wreg+status,2+status,0+btemp+1]
  8158                           
  8159     0B9D  01F7               	clrf	___awdiv@sign
  8160     0B9E                     l3911:
  8161     0B9E  1FF3               	btfss	___awdiv@divisor+1,7
  8162     0B9F  2BA1               	goto	u3271
  8163     0BA0  2BA2               	goto	u3270
  8164     0BA1                     u3271:
  8165     0BA1  2BA9               	goto	l3917
  8166     0BA2                     u3270:
  8167     0BA2                     l3913:
  8168     0BA2  09F2               	comf	___awdiv@divisor,f
  8169     0BA3  09F3               	comf	___awdiv@divisor+1,f
  8170     0BA4  0AF2               	incf	___awdiv@divisor,f
  8171     0BA5  1903               	skipnz
  8172     0BA6  0AF3               	incf	___awdiv@divisor+1,f
  8173     0BA7                     l3915:
  8174     0BA7  01F7               	clrf	___awdiv@sign
  8175     0BA8  0AF7               	incf	___awdiv@sign,f
  8176     0BA9                     l3917:
  8177     0BA9  1FF5               	btfss	___awdiv@dividend+1,7
  8178     0BAA  2BAC               	goto	u3281
  8179     0BAB  2BAD               	goto	u3280
  8180     0BAC                     u3281:
  8181     0BAC  2BB6               	goto	l3923
  8182     0BAD                     u3280:
  8183     0BAD                     l3919:
  8184     0BAD  09F4               	comf	___awdiv@dividend,f
  8185     0BAE  09F5               	comf	___awdiv@dividend+1,f
  8186     0BAF  0AF4               	incf	___awdiv@dividend,f
  8187     0BB0  1903               	skipnz
  8188     0BB1  0AF5               	incf	___awdiv@dividend+1,f
  8189     0BB2                     l3921:
  8190     0BB2  3001               	movlw	1
  8191     0BB3  00FF               	movwf	btemp+1
  8192     0BB4  087F               	movf	btemp+1,w
  8193     0BB5  06F7               	xorwf	___awdiv@sign,f
  8194     0BB6                     l3923:
  8195     0BB6  01F8               	clrf	___awdiv@quotient
  8196     0BB7  01F9               	clrf	___awdiv@quotient+1
  8197     0BB8                     l3925:
  8198     0BB8  0872               	movf	___awdiv@divisor,w
  8199     0BB9  0473               	iorwf	___awdiv@divisor+1,w
  8200     0BBA  1903               	btfsc	3,2
  8201     0BBB  2BBD               	goto	u3291
  8202     0BBC  2BBE               	goto	u3290
  8203     0BBD                     u3291:
  8204     0BBD  2BF5               	goto	l3945
  8205     0BBE                     u3290:
  8206     0BBE                     l3927:
  8207     0BBE  01F6               	clrf	___awdiv@counter
  8208     0BBF  0AF6               	incf	___awdiv@counter,f
  8209     0BC0  2BCC               	goto	l3933
  8210     0BC1                     l3929:
  8211     0BC1  3001               	movlw	1
  8212     0BC2                     u3305:
  8213     0BC2  1003               	clrc
  8214     0BC3  0DF2               	rlf	___awdiv@divisor,f
  8215     0BC4  0DF3               	rlf	___awdiv@divisor+1,f
  8216     0BC5  3EFF               	addlw	-1
  8217     0BC6  1D03               	skipz
  8218     0BC7  2BC2               	goto	u3305
  8219     0BC8                     l3931:
  8220     0BC8  3001               	movlw	1
  8221     0BC9  00FF               	movwf	btemp+1
  8222     0BCA  087F               	movf	btemp+1,w
  8223     0BCB  07F6               	addwf	___awdiv@counter,f
  8224     0BCC                     l3933:
  8225     0BCC  1FF3               	btfss	___awdiv@divisor+1,7
  8226     0BCD  2BCF               	goto	u3311
  8227     0BCE  2BD0               	goto	u3310
  8228     0BCF                     u3311:
  8229     0BCF  2BC1               	goto	l3929
  8230     0BD0                     u3310:
  8231     0BD0                     l3935:
  8232     0BD0  3001               	movlw	1
  8233     0BD1                     u3325:
  8234     0BD1  1003               	clrc
  8235     0BD2  0DF8               	rlf	___awdiv@quotient,f
  8236     0BD3  0DF9               	rlf	___awdiv@quotient+1,f
  8237     0BD4  3EFF               	addlw	-1
  8238     0BD5  1D03               	skipz
  8239     0BD6  2BD1               	goto	u3325
  8240     0BD7  0873               	movf	___awdiv@divisor+1,w
  8241     0BD8  0275               	subwf	___awdiv@dividend+1,w
  8242     0BD9  1D03               	skipz
  8243     0BDA  2BDD               	goto	u3335
  8244     0BDB  0872               	movf	___awdiv@divisor,w
  8245     0BDC  0274               	subwf	___awdiv@dividend,w
  8246     0BDD                     u3335:
  8247     0BDD  1C03               	skipc
  8248     0BDE  2BE0               	goto	u3331
  8249     0BDF  2BE1               	goto	u3330
  8250     0BE0                     u3331:
  8251     0BE0  2BE8               	goto	l3941
  8252     0BE1                     u3330:
  8253     0BE1                     l3937:
  8254     0BE1  0872               	movf	___awdiv@divisor,w
  8255     0BE2  02F4               	subwf	___awdiv@dividend,f
  8256     0BE3  0873               	movf	___awdiv@divisor+1,w
  8257     0BE4  1C03               	skipc
  8258     0BE5  03F5               	decf	___awdiv@dividend+1,f
  8259     0BE6  02F5               	subwf	___awdiv@dividend+1,f
  8260     0BE7                     l3939:
  8261     0BE7  1478               	bsf	___awdiv@quotient,0
  8262     0BE8                     l3941:
  8263     0BE8  3001               	movlw	1
  8264     0BE9                     u3345:
  8265     0BE9  1003               	clrc
  8266     0BEA  0CF3               	rrf	___awdiv@divisor+1,f
  8267     0BEB  0CF2               	rrf	___awdiv@divisor,f
  8268     0BEC  3EFF               	addlw	-1
  8269     0BED  1D03               	skipz
  8270     0BEE  2BE9               	goto	u3345
  8271     0BEF                     l3943:
  8272     0BEF  3001               	movlw	1
  8273     0BF0  02F6               	subwf	___awdiv@counter,f
  8274     0BF1  1D03               	btfss	3,2
  8275     0BF2  2BF4               	goto	u3351
  8276     0BF3  2BF5               	goto	u3350
  8277     0BF4                     u3351:
  8278     0BF4  2BD0               	goto	l3935
  8279     0BF5                     u3350:
  8280     0BF5                     l3945:
  8281     0BF5  0877               	movf	___awdiv@sign,w
  8282     0BF6  1903               	btfsc	3,2
  8283     0BF7  2BF9               	goto	u3361
  8284     0BF8  2BFA               	goto	u3360
  8285     0BF9                     u3361:
  8286     0BF9  2BFF               	goto	l3949
  8287     0BFA                     u3360:
  8288     0BFA                     l3947:
  8289     0BFA  09F8               	comf	___awdiv@quotient,f
  8290     0BFB  09F9               	comf	___awdiv@quotient+1,f
  8291     0BFC  0AF8               	incf	___awdiv@quotient,f
  8292     0BFD  1903               	skipnz
  8293     0BFE  0AF9               	incf	___awdiv@quotient+1,f
  8294     0BFF                     l3949:
  8295     0BFF  0879               	movf	___awdiv@quotient+1,w
  8296     0C00  00F3               	movwf	?___awdiv+1
  8297     0C01  0878               	movf	___awdiv@quotient,w
  8298     0C02  00F2               	movwf	?___awdiv
  8299     0C03                     l819:
  8300     0C03  0008               	return
  8301     0C04                     __end_of___awdiv:
  8302                           
  8303                           	psect	text38
  8304     1776                     __ptext38:	
  8305 ;; *************** function _clear_log *****************
  8306 ;; Defined at:
  8307 ;;		line 65 in file "log_op.c"
  8308 ;; Parameters:    Size  Location     Type
  8309 ;;		None
  8310 ;; Auto vars:     Size  Location     Type
  8311 ;;  i               2    8[COMMON] int 
  8312 ;; Return value:  Size  Location     Type
  8313 ;;                  1    wreg      void 
  8314 ;; Registers used:
  8315 ;;		wreg, status,2, status,0, btemp+1, pclath, cstack
  8316 ;; Tracked objects:
  8317 ;;		On entry : 0/0
  8318 ;;		On exit  : 0/0
  8319 ;;		Unchanged: 0/0
  8320 ;; Data sizes:     COMMON   BANK0   BANK1   BANK3   BANK2
  8321 ;;      Params:         0       0       0       0       0
  8322 ;;      Locals:         2       0       0       0       0
  8323 ;;      Temps:          0       0       0       0       0
  8324 ;;      Totals:         2       0       0       0       0
  8325 ;;Total ram usage:        2 bytes
  8326 ;; Hardware stack levels used: 1
  8327 ;; Hardware stack levels required when called: 4
  8328 ;; This function calls:
  8329 ;;		_clear_display
  8330 ;;		_eeprom_at24C04_byte_write
  8331 ;; This function is called by:
  8332 ;;		_main
  8333 ;; This function uses a non-reentrant model
  8334 ;;
  8335                           
  8336     1776                     _clear_log:	
  8337                           ;psect for function _clear_log
  8338                           
  8339     1776                     l4051:	
  8340                           ;incstack = 0
  8341                           ; Regs used in _clear_log: [wreg+status,2+status,0+btemp+1+pclath+cstack]
  8342                           
  8343                           
  8344                           ;log_op.c: 67:     for(int i=0;i<100;i++)
  8345     1776  01F8               	clrf	clear_log@i
  8346     1777  01F9               	clrf	clear_log@i+1
  8347     1778                     l4057:
  8348                           
  8349                           ;log_op.c: 68:     eeprom_at24C04_byte_write(0x05 + i , 0xFF);
  8350     1778  30FF               	movlw	255
  8351     1779  00F3               	movwf	eeprom_at24C04_byte_write@data
  8352     177A  0878               	movf	clear_log@i,w
  8353     177B  3E05               	addlw	5
  8354     177C  160A  118A  2650  160A  118A  	fcall	_eeprom_at24C04_byte_write
  8355     1781                     l4059:
  8356     1781  3001               	movlw	1
  8357     1782  07F8               	addwf	clear_log@i,f
  8358     1783  1803               	skipnc
  8359     1784  0AF9               	incf	clear_log@i+1,f
  8360     1785  3000               	movlw	0
  8361     1786  07F9               	addwf	clear_log@i+1,f
  8362     1787                     l4061:
  8363     1787  0879               	movf	clear_log@i+1,w
  8364     1788  3A80               	xorlw	128
  8365     1789  00FF               	movwf	btemp+1
  8366     178A  3080               	movlw	128
  8367     178B  027F               	subwf	btemp+1,w
  8368     178C  1D03               	skipz
  8369     178D  2F90               	goto	u3495
  8370     178E  3064               	movlw	100
  8371     178F  0278               	subwf	clear_log@i,w
  8372     1790                     u3495:
  8373     1790  1C03               	skipc
  8374     1791  2F93               	goto	u3491
  8375     1792  2F94               	goto	u3490
  8376     1793                     u3491:
  8377     1793  2F78               	goto	l4057
  8378     1794                     u3490:
  8379     1794                     l4063:
  8380                           
  8381                           ;log_op.c: 69:     event = 0;
  8382     1794  01FA               	clrf	_event
  8383     1795  01FB               	clrf	_event+1
  8384     1796                     l4065:
  8385                           
  8386                           ;log_op.c: 70:     pos = -1;
  8387     1796  30FF               	movlw	255
  8388     1797  1283               	bcf	3,5	;RP0=0, select bank0
  8389     1798  1303               	bcf	3,6	;RP1=0, select bank0
  8390     1799  00EE               	movwf	_pos
  8391     179A  30FF               	movlw	255
  8392     179B  00EF               	movwf	_pos+1
  8393     179C                     l4067:
  8394                           
  8395                           ;log_op.c: 71:     clear_display();
  8396     179C  160A  118A  25A6  160A  118A  	fcall	_clear_display
  8397     17A1                     l529:
  8398     17A1  0008               	return
  8399     17A2                     __end_of_clear_log:
  8400                           
  8401                           	psect	text39
  8402     0EA3                     __ptext39:	
  8403 ;; *************** function _change_pass *****************
  8404 ;; Defined at:
  8405 ;;		line 14 in file "pass.c"
  8406 ;; Parameters:    Size  Location     Type
  8407 ;;  key             1    wreg     unsigned char 
  8408 ;;  reset           2    2[BANK0 ] PTR unsigned char 
  8409 ;;		 -> RAM(512), main@reset(1), 
  8410 ;; Auto vars:     Size  Location     Type
  8411 ;;  key             1    7[BANK0 ] unsigned char 
  8412 ;;  i               2   10[BANK0 ] int 
  8413 ;;  i               2    8[BANK0 ] int 
  8414 ;; Return value:  Size  Location     Type
  8415 ;;                  1    wreg      void 
  8416 ;; Registers used:
  8417 ;;		wreg, fsr0l, fsr0h, status,2, status,0, btemp+1, pclath, cstack
  8418 ;; Tracked objects:
  8419 ;;		On entry : 0/0
  8420 ;;		On exit  : 0/0
  8421 ;;		Unchanged: 0/0
  8422 ;; Data sizes:     COMMON   BANK0   BANK1   BANK3   BANK2
  8423 ;;      Params:         0       2       0       0       0
  8424 ;;      Locals:         0       5       0       0       0
  8425 ;;      Temps:          0       3       0       0       0
  8426 ;;      Totals:         0      10       0       0       0
  8427 ;;Total ram usage:       10 bytes
  8428 ;; Hardware stack levels used: 1
  8429 ;; Hardware stack levels required when called: 4
  8430 ;; This function calls:
  8431 ;;		_clcd_print
  8432 ;;		_clcd_putch
  8433 ;;		_clear_display
  8434 ;;		_cursor_off
  8435 ;;		_cursor_on
  8436 ;;		_eeprom_at24C04_byte_write
  8437 ;;		_strncmp
  8438 ;; This function is called by:
  8439 ;;		_main
  8440 ;; This function uses a non-reentrant model
  8441 ;;
  8442                           
  8443     0EA3                     _change_pass:	
  8444                           ;psect for function _change_pass
  8445                           
  8446                           
  8447                           ;incstack = 0
  8448                           ; Regs used in _change_pass: [wreg-fsr0h+status,2+status,0+btemp+1+pclath+cstack]
  8449                           ;change_pass@key stored from wreg
  8450     0EA3  1283               	bcf	3,5	;RP0=0, select bank0
  8451     0EA4  1303               	bcf	3,6	;RP1=0, select bank0
  8452     0EA5  00A7               	movwf	change_pass@key
  8453     0EA6                     l4275:
  8454                           
  8455                           ;pass.c: 14: void change_pass(unsigned char key ,unsigned char * reset);pass.c: 15: {;pa
      +                          ss.c: 16:    static char i = 0,new_pass[4],re_pass[4],clear_flag = 0;;pass.c: 17:    if(
      +                          *reset == 0x0E)
  8456     0EA6  0822               	movf	change_pass@reset,w
  8457     0EA7  0084               	movwf	4
  8458     0EA8  1783               	bsf	3,7
  8459     0EA9  1C23               	btfss	change_pass@reset+1,0
  8460     0EAA  1383               	bcf	3,7
  8461     0EAB  300E               	movlw	14
  8462     0EAC  0600               	xorwf	0,w
  8463     0EAD  1D03               	btfss	3,2
  8464     0EAE  2EB0               	goto	u3751
  8465     0EAF  2EB1               	goto	u3750
  8466     0EB0                     u3751:
  8467     0EB0  2EE5               	goto	l4299
  8468     0EB1                     u3750:
  8469     0EB1                     l4277:
  8470                           
  8471                           ;pass.c: 18:    {;pass.c: 19:        for(int i = 0;i<4;i++)
  8472     0EB1  01A8               	clrf	change_pass@i_468
  8473     0EB2  01A9               	clrf	change_pass@i_468+1
  8474     0EB3                     l4283:
  8475                           
  8476                           ;pass.c: 20:        {;pass.c: 21:            new_pass[i] = '\0';
  8477     0EB3  1283               	bcf	3,5	;RP0=0, select bank0
  8478     0EB4  1303               	bcf	3,6	;RP1=0, select bank0
  8479     0EB5  0828               	movf	change_pass@i_468,w
  8480     0EB6  3EC9               	addlw	(low (change_pass@new_pass| 0))& (0+255)
  8481     0EB7  0084               	movwf	4
  8482     0EB8  1383               	bcf	3,7	;select IRP bank1
  8483     0EB9  0180               	clrf	0
  8484                           
  8485                           ;pass.c: 22:            re_pass[i] = '\0';
  8486     0EBA  0828               	movf	change_pass@i_468,w
  8487     0EBB  3EC5               	addlw	(low (change_pass@re_pass| 0))& (0+255)
  8488     0EBC  0084               	movwf	4
  8489     0EBD  0180               	clrf	0
  8490     0EBE                     l4285:
  8491                           
  8492                           ;pass.c: 23:        }
  8493     0EBE  3001               	movlw	1
  8494     0EBF  07A8               	addwf	change_pass@i_468,f
  8495     0EC0  1803               	skipnc
  8496     0EC1  0AA9               	incf	change_pass@i_468+1,f
  8497     0EC2  3000               	movlw	0
  8498     0EC3  07A9               	addwf	change_pass@i_468+1,f
  8499     0EC4                     l4287:
  8500     0EC4  0829               	movf	change_pass@i_468+1,w
  8501     0EC5  3A80               	xorlw	128
  8502     0EC6  00FF               	movwf	btemp+1
  8503     0EC7  3080               	movlw	128
  8504     0EC8  027F               	subwf	btemp+1,w
  8505     0EC9  1D03               	skipz
  8506     0ECA  2ECD               	goto	u3765
  8507     0ECB  3004               	movlw	4
  8508     0ECC  0228               	subwf	change_pass@i_468,w
  8509     0ECD                     u3765:
  8510     0ECD  1C03               	skipc
  8511     0ECE  2ED0               	goto	u3761
  8512     0ECF  2ED1               	goto	u3760
  8513     0ED0                     u3761:
  8514     0ED0  2EB3               	goto	l4283
  8515     0ED1                     u3760:
  8516     0ED1                     l4289:
  8517                           
  8518                           ;pass.c: 24:        key = 0x3F;
  8519     0ED1  303F               	movlw	63
  8520     0ED2  1283               	bcf	3,5	;RP0=0, select bank0
  8521     0ED3  1303               	bcf	3,6	;RP1=0, select bank0
  8522     0ED4  00A7               	movwf	change_pass@key
  8523     0ED5                     l4291:
  8524                           
  8525                           ;pass.c: 25:        clear_flag = 1;
  8526     0ED5  01D8               	clrf	change_pass@clear_flag
  8527     0ED6  0AD8               	incf	change_pass@clear_flag,f
  8528     0ED7                     l4293:
  8529                           
  8530                           ;pass.c: 26:        i=0;
  8531     0ED7  01D9               	clrf	change_pass@i
  8532     0ED8                     l4295:
  8533                           
  8534                           ;pass.c: 27:        *reset = 0x0B;
  8535     0ED8  0822               	movf	change_pass@reset,w
  8536     0ED9  0084               	movwf	4
  8537     0EDA  1783               	bsf	3,7
  8538     0EDB  1C23               	btfss	change_pass@reset+1,0
  8539     0EDC  1383               	bcf	3,7
  8540     0EDD  300B               	movlw	11
  8541     0EDE  0080               	movwf	0
  8542     0EDF                     l4297:
  8543                           
  8544                           ;pass.c: 28:        cursor_on(0xC6);
  8545     0EDF  30C6               	movlw	198
  8546     0EE0  160A  118A  261B  120A  158A  	fcall	_cursor_on
  8547     0EE5                     l4299:
  8548                           
  8549                           ;pass.c: 30:    if(key == 0x37)
  8550     0EE5  3037               	movlw	55
  8551     0EE6  1283               	bcf	3,5	;RP0=0, select bank0
  8552     0EE7  1303               	bcf	3,6	;RP1=0, select bank0
  8553     0EE8  0627               	xorwf	change_pass@key,w
  8554     0EE9  1D03               	btfss	3,2
  8555     0EEA  2EEC               	goto	u3771
  8556     0EEB  2EED               	goto	u3770
  8557     0EEC                     u3771:
  8558     0EEC  2F11               	goto	l4311
  8559     0EED                     u3770:
  8560     0EED                     l4301:
  8561                           
  8562                           ;pass.c: 31:    {;pass.c: 32:        if(i<4)
  8563     0EED  3004               	movlw	4
  8564     0EEE  0259               	subwf	change_pass@i,w
  8565     0EEF  1803               	skipnc
  8566     0EF0  2EF2               	goto	u3781
  8567     0EF1  2EF3               	goto	u3780
  8568     0EF2                     u3781:
  8569     0EF2  2EFA               	goto	l4305
  8570     0EF3                     u3780:
  8571     0EF3                     l4303:
  8572                           
  8573                           ;pass.c: 33:            new_pass[i] = '0';
  8574     0EF3  0859               	movf	change_pass@i,w
  8575     0EF4  3EC9               	addlw	(low (change_pass@new_pass| 0))& (0+255)
  8576     0EF5  0084               	movwf	4
  8577     0EF6  3030               	movlw	48
  8578     0EF7  1383               	bcf	3,7	;select IRP bank1
  8579     0EF8  0080               	movwf	0
  8580     0EF9  2F01               	goto	l4307
  8581     0EFA                     l4305:
  8582                           
  8583                           ;pass.c: 35:            re_pass[i%4] = '0';
  8584     0EFA  0859               	movf	change_pass@i,w
  8585     0EFB  3903               	andlw	3
  8586     0EFC  3EC5               	addlw	(low (change_pass@re_pass| 0))& (0+255)
  8587     0EFD  0084               	movwf	4
  8588     0EFE  3030               	movlw	48
  8589     0EFF  1383               	bcf	3,7	;select IRP bank1
  8590     0F00  0080               	movwf	0
  8591     0F01                     l4307:
  8592                           
  8593                           ;pass.c: 36:        clcd_putch('*',0xC6+(i%4));
  8594     0F01  0859               	movf	change_pass@i,w
  8595     0F02  3903               	andlw	3
  8596     0F03  3EC6               	addlw	198
  8597     0F04  00A0               	movwf	clcd_putch@addr
  8598     0F05  302A               	movlw	42
  8599     0F06  160A  118A  25EF  120A  158A  	fcall	_clcd_putch
  8600     0F0B                     l4309:
  8601                           
  8602                           ;pass.c: 37:        i++;
  8603     0F0B  3001               	movlw	1
  8604     0F0C  00FF               	movwf	btemp+1
  8605     0F0D  087F               	movf	btemp+1,w
  8606     0F0E  1283               	bcf	3,5	;RP0=0, select bank0
  8607     0F0F  1303               	bcf	3,6	;RP1=0, select bank0
  8608     0F10  07D9               	addwf	change_pass@i,f
  8609     0F11                     l4311:
  8610                           
  8611                           ;pass.c: 39:    if(key == 0x2F)
  8612     0F11  302F               	movlw	47
  8613     0F12  0627               	xorwf	change_pass@key,w
  8614     0F13  1D03               	btfss	3,2
  8615     0F14  2F16               	goto	u3791
  8616     0F15  2F17               	goto	u3790
  8617     0F16                     u3791:
  8618     0F16  2F3B               	goto	l4323
  8619     0F17                     u3790:
  8620     0F17                     l4313:
  8621                           
  8622                           ;pass.c: 40:    {;pass.c: 41:        if(i<4)
  8623     0F17  3004               	movlw	4
  8624     0F18  0259               	subwf	change_pass@i,w
  8625     0F19  1803               	skipnc
  8626     0F1A  2F1C               	goto	u3801
  8627     0F1B  2F1D               	goto	u3800
  8628     0F1C                     u3801:
  8629     0F1C  2F24               	goto	l4317
  8630     0F1D                     u3800:
  8631     0F1D                     l4315:
  8632                           
  8633                           ;pass.c: 42:            new_pass[i] = '1';
  8634     0F1D  0859               	movf	change_pass@i,w
  8635     0F1E  3EC9               	addlw	(low (change_pass@new_pass| 0))& (0+255)
  8636     0F1F  0084               	movwf	4
  8637     0F20  3031               	movlw	49
  8638     0F21  1383               	bcf	3,7	;select IRP bank1
  8639     0F22  0080               	movwf	0
  8640     0F23  2F2B               	goto	l4319
  8641     0F24                     l4317:
  8642                           
  8643                           ;pass.c: 44:            re_pass[i%4] = '1';
  8644     0F24  0859               	movf	change_pass@i,w
  8645     0F25  3903               	andlw	3
  8646     0F26  3EC5               	addlw	(low (change_pass@re_pass| 0))& (0+255)
  8647     0F27  0084               	movwf	4
  8648     0F28  3031               	movlw	49
  8649     0F29  1383               	bcf	3,7	;select IRP bank1
  8650     0F2A  0080               	movwf	0
  8651     0F2B                     l4319:
  8652                           
  8653                           ;pass.c: 45:        clcd_putch('*',0xC6+(i%4));
  8654     0F2B  0859               	movf	change_pass@i,w
  8655     0F2C  3903               	andlw	3
  8656     0F2D  3EC6               	addlw	198
  8657     0F2E  00A0               	movwf	clcd_putch@addr
  8658     0F2F  302A               	movlw	42
  8659     0F30  160A  118A  25EF  120A  158A  	fcall	_clcd_putch
  8660     0F35                     l4321:
  8661                           
  8662                           ;pass.c: 46:        i++;
  8663     0F35  3001               	movlw	1
  8664     0F36  00FF               	movwf	btemp+1
  8665     0F37  087F               	movf	btemp+1,w
  8666     0F38  1283               	bcf	3,5	;RP0=0, select bank0
  8667     0F39  1303               	bcf	3,6	;RP1=0, select bank0
  8668     0F3A  07D9               	addwf	change_pass@i,f
  8669     0F3B                     l4323:
  8670                           
  8671                           ;pass.c: 48:    if(i==4 && clear_flag)
  8672     0F3B  3004               	movlw	4
  8673     0F3C  0659               	xorwf	change_pass@i,w
  8674     0F3D  1D03               	btfss	3,2
  8675     0F3E  2F40               	goto	u3811
  8676     0F3F  2F41               	goto	u3810
  8677     0F40                     u3811:
  8678     0F40  2F69               	goto	l4337
  8679     0F41                     u3810:
  8680     0F41                     l4325:
  8681     0F41  0858               	movf	change_pass@clear_flag,w
  8682     0F42  1903               	btfsc	3,2
  8683     0F43  2F45               	goto	u3821
  8684     0F44  2F46               	goto	u3820
  8685     0F45                     u3821:
  8686     0F45  2F69               	goto	l4337
  8687     0F46                     u3820:
  8688     0F46                     l4327:
  8689                           
  8690                           ;pass.c: 49:    {;pass.c: 50:        clear_flag = !clear_flag;
  8691     0F46  0858               	movf	change_pass@clear_flag,w
  8692     0F47  1903               	btfsc	3,2
  8693     0F48  2F4A               	goto	u3831
  8694     0F49  2F4C               	goto	u3830
  8695     0F4A                     u3831:
  8696     0F4A  3001               	movlw	1
  8697     0F4B  2F4D               	goto	u3840
  8698     0F4C                     u3830:
  8699     0F4C  3000               	movlw	0
  8700     0F4D                     u3840:
  8701     0F4D  00D8               	movwf	change_pass@clear_flag
  8702     0F4E                     l4329:
  8703                           
  8704                           ;pass.c: 51:        clear_display();
  8705     0F4E  160A  118A  25A6  120A  158A  	fcall	_clear_display
  8706     0F53                     l4331:
  8707                           
  8708                           ;pass.c: 52:        clcd_print("RE-ENTER PASS :" , (0x80 + 0));
  8709     0F53  3077               	movlw	low (STR_32| (0+32768))
  8710     0F54  00F6               	movwf	clcd_print@str
  8711     0F55  3084               	movlw	high (STR_32| (0+32768))
  8712     0F56  00F7               	movwf	clcd_print@str+1
  8713     0F57  3080               	movlw	128
  8714     0F58  00F8               	movwf	clcd_print@addr
  8715     0F59  160A  118A  27A2  120A  158A  	fcall	_clcd_print
  8716     0F5E                     l4333:
  8717                           
  8718                           ;pass.c: 53:        cursor_off();
  8719     0F5E  160A  118A  257F  120A  158A  	fcall	_cursor_off
  8720     0F63                     l4335:
  8721                           
  8722                           ;pass.c: 54:        cursor_on(0xC6);
  8723     0F63  30C6               	movlw	198
  8724     0F64  160A  118A  261B  120A  158A  	fcall	_cursor_on
  8725     0F69                     l4337:
  8726                           
  8727                           ;pass.c: 56:    if(i==8)
  8728     0F69  3008               	movlw	8
  8729     0F6A  1283               	bcf	3,5	;RP0=0, select bank0
  8730     0F6B  1303               	bcf	3,6	;RP1=0, select bank0
  8731     0F6C  0659               	xorwf	change_pass@i,w
  8732     0F6D  1D03               	btfss	3,2
  8733     0F6E  2F70               	goto	u3851
  8734     0F6F  2F71               	goto	u3850
  8735     0F70                     u3851:
  8736     0F70  2FFF               	goto	l580
  8737     0F71                     u3850:
  8738     0F71                     l4339:
  8739                           
  8740                           ;pass.c: 57:    {;pass.c: 58:        clear_display();
  8741     0F71  160A  118A  25A6  120A  158A  	fcall	_clear_display
  8742                           
  8743                           ;pass.c: 59:        cursor_off();
  8744     0F76  160A  118A  257F  120A  158A  	fcall	_cursor_off
  8745     0F7B                     l4341:
  8746                           
  8747                           ;pass.c: 60:        if(strncmp(new_pass,re_pass,4) == 0)
  8748     0F7B  30C5               	movlw	(low (change_pass@re_pass| 0))& (0+255)
  8749     0F7C  00F2               	movwf	strncmp@r
  8750     0F7D  3004               	movlw	4
  8751     0F7E  00F3               	movwf	strncmp@n
  8752     0F7F  3000               	movlw	0
  8753     0F80  00F4               	movwf	strncmp@n+1
  8754     0F81  30C9               	movlw	(low (change_pass@new_pass| 0))& (0+255)
  8755     0F82  120A  158A  222C  120A  158A  	fcall	_strncmp
  8756     0F87  0872               	movf	?_strncmp,w
  8757     0F88  0473               	iorwf	?_strncmp+1,w
  8758     0F89  1D03               	btfss	3,2
  8759     0F8A  2F8C               	goto	u3861
  8760     0F8B  2F8D               	goto	u3860
  8761     0F8C                     u3861:
  8762     0F8C  2FDD               	goto	l4361
  8763     0F8D                     u3860:
  8764     0F8D                     l4343:
  8765                           
  8766                           ;pass.c: 61:        {;pass.c: 62:            for(int i = 0 ; i<4 ; i++)
  8767     0F8D  1283               	bcf	3,5	;RP0=0, select bank0
  8768     0F8E  1303               	bcf	3,6	;RP1=0, select bank0
  8769     0F8F  01AA               	clrf	change_pass@i_470
  8770     0F90  01AB               	clrf	change_pass@i_470+1
  8771     0F91                     l4349:
  8772                           
  8773                           ;pass.c: 63:                eeprom_at24C04_byte_write( i , new_pass[i]);
  8774     0F91  1283               	bcf	3,5	;RP0=0, select bank0
  8775     0F92  1303               	bcf	3,6	;RP1=0, select bank0
  8776     0F93  082A               	movf	change_pass@i_470,w
  8777     0F94  3EC9               	addlw	(low (change_pass@new_pass| 0))& (0+255)
  8778     0F95  0084               	movwf	4
  8779     0F96  1383               	bcf	3,7	;select IRP bank1
  8780     0F97  0800               	movf	0,w
  8781     0F98  00F3               	movwf	eeprom_at24C04_byte_write@data
  8782     0F99  082A               	movf	change_pass@i_470,w
  8783     0F9A  160A  118A  2650  120A  158A  	fcall	_eeprom_at24C04_byte_write
  8784     0F9F                     l4351:
  8785     0F9F  3001               	movlw	1
  8786     0FA0  1283               	bcf	3,5	;RP0=0, select bank0
  8787     0FA1  1303               	bcf	3,6	;RP1=0, select bank0
  8788     0FA2  07AA               	addwf	change_pass@i_470,f
  8789     0FA3  1803               	skipnc
  8790     0FA4  0AAB               	incf	change_pass@i_470+1,f
  8791     0FA5  3000               	movlw	0
  8792     0FA6  07AB               	addwf	change_pass@i_470+1,f
  8793     0FA7                     l4353:
  8794     0FA7  082B               	movf	change_pass@i_470+1,w
  8795     0FA8  3A80               	xorlw	128
  8796     0FA9  00FF               	movwf	btemp+1
  8797     0FAA  3080               	movlw	128
  8798     0FAB  027F               	subwf	btemp+1,w
  8799     0FAC  1D03               	skipz
  8800     0FAD  2FB0               	goto	u3875
  8801     0FAE  3004               	movlw	4
  8802     0FAF  022A               	subwf	change_pass@i_470,w
  8803     0FB0                     u3875:
  8804     0FB0  1C03               	skipc
  8805     0FB1  2FB3               	goto	u3871
  8806     0FB2  2FB4               	goto	u3870
  8807     0FB3                     u3871:
  8808     0FB3  2F91               	goto	l4349
  8809     0FB4                     u3870:
  8810     0FB4                     l4355:
  8811                           
  8812                           ;pass.c: 64:            clcd_print("PASSWORD CHANGE",(0x80 + 0));
  8813     0FB4  3087               	movlw	low (STR_33| (0+32768))
  8814     0FB5  00F6               	movwf	clcd_print@str
  8815     0FB6  3084               	movlw	high (STR_33| (0+32768))
  8816     0FB7  00F7               	movwf	clcd_print@str+1
  8817     0FB8  3080               	movlw	128
  8818     0FB9  00F8               	movwf	clcd_print@addr
  8819     0FBA  160A  118A  27A2  120A  158A  	fcall	_clcd_print
  8820                           
  8821                           ;pass.c: 65:            clcd_print("SUCCESS!!",(0xC0 + 0));
  8822     0FBF  301D               	movlw	low (STR_34| (0+32768))
  8823     0FC0  00F6               	movwf	clcd_print@str
  8824     0FC1  3085               	movlw	high (STR_34| (0+32768))
  8825     0FC2  00F7               	movwf	clcd_print@str+1
  8826     0FC3  30C0               	movlw	192
  8827     0FC4  00F8               	movwf	clcd_print@addr
  8828     0FC5  160A  118A  27A2  120A  158A  	fcall	_clcd_print
  8829     0FCA                     l4357:
  8830                           
  8831                           ;pass.c: 66:            _delay((unsigned long)((2000)*(20000000/4000.0)));
  8832     0FCA  3033               	movlw	51
  8833     0FCB  1283               	bcf	3,5	;RP0=0, select bank0
  8834     0FCC  1303               	bcf	3,6	;RP1=0, select bank0
  8835     0FCD  00A6               	movwf	??_change_pass+2
  8836     0FCE  30BB               	movlw	187
  8837     0FCF  00A5               	movwf	??_change_pass+1
  8838     0FD0  30DF               	movlw	223
  8839     0FD1  00A4               	movwf	??_change_pass
  8840     0FD2                     u4367:
  8841     0FD2  0BA4               	decfsz	??_change_pass,f
  8842     0FD3  2FD2               	goto	u4367
  8843     0FD4  0BA5               	decfsz	??_change_pass+1,f
  8844     0FD5  2FD2               	goto	u4367
  8845     0FD6  0BA6               	decfsz	??_change_pass+2,f
  8846     0FD7  2FD2               	goto	u4367
  8847     0FD8                     l4359:
  8848                           
  8849                           ;pass.c: 67:            control_flag = 0x01;
  8850     0FD8  1283               	bcf	3,5	;RP0=0, select bank0
  8851     0FD9  1303               	bcf	3,6	;RP1=0, select bank0
  8852     0FDA  01ED               	clrf	_control_flag
  8853     0FDB  0AED               	incf	_control_flag,f
  8854                           
  8855                           ;pass.c: 68:        }
  8856     0FDC  2FFA               	goto	l4369
  8857     0FDD                     l4361:
  8858                           
  8859                           ;pass.c: 70:        {;pass.c: 71:            clcd_print("NOT MATCHED..",(0x80 + 0));
  8860     0FDD  30C5               	movlw	low (STR_35| (0+32768))
  8861     0FDE  00F6               	movwf	clcd_print@str
  8862     0FDF  3084               	movlw	high (STR_35| (0+32768))
  8863     0FE0  00F7               	movwf	clcd_print@str+1
  8864     0FE1  3080               	movlw	128
  8865     0FE2  00F8               	movwf	clcd_print@addr
  8866     0FE3  160A  118A  27A2  120A  158A  	fcall	_clcd_print
  8867     0FE8                     l4363:
  8868                           
  8869                           ;pass.c: 72:            _delay((unsigned long)((2000)*(20000000/4000.0)));
  8870     0FE8  3033               	movlw	51
  8871     0FE9  1283               	bcf	3,5	;RP0=0, select bank0
  8872     0FEA  1303               	bcf	3,6	;RP1=0, select bank0
  8873     0FEB  00A6               	movwf	??_change_pass+2
  8874     0FEC  30BB               	movlw	187
  8875     0FED  00A5               	movwf	??_change_pass+1
  8876     0FEE  30DF               	movlw	223
  8877     0FEF  00A4               	movwf	??_change_pass
  8878     0FF0                     u4377:
  8879     0FF0  0BA4               	decfsz	??_change_pass,f
  8880     0FF1  2FF0               	goto	u4377
  8881     0FF2  0BA5               	decfsz	??_change_pass+1,f
  8882     0FF3  2FF0               	goto	u4377
  8883     0FF4  0BA6               	decfsz	??_change_pass+2,f
  8884     0FF5  2FF0               	goto	u4377
  8885     0FF6                     l4365:
  8886     0FF6                     l4367:
  8887                           
  8888                           ;pass.c: 74:            control_flag = 0x03;
  8889     0FF6  3003               	movlw	3
  8890     0FF7  1283               	bcf	3,5	;RP0=0, select bank0
  8891     0FF8  1303               	bcf	3,6	;RP1=0, select bank0
  8892     0FF9  00ED               	movwf	_control_flag
  8893     0FFA                     l4369:
  8894                           
  8895                           ;pass.c: 76:        clear_display();
  8896     0FFA  160A  118A  25A6  120A  158A  	fcall	_clear_display
  8897     0FFF                     l580:
  8898     0FFF  0008               	return
  8899     1000                     __end_of_change_pass:
  8900                           
  8901                           	psect	text40
  8902     0A2C                     __ptext40:	
  8903 ;; *************** function _strncmp *****************
  8904 ;; Defined at:
  8905 ;;		line 3 in file "C:\Program Files\Microchip\xc8\v2.45\pic\sources\c99\common\strncmp.c"
  8906 ;; Parameters:    Size  Location     Type
  8907 ;;  l               1    wreg     PTR const unsigned char 
  8908 ;;		 -> change_pass@new_pass(4), login@upassword(4), 
  8909 ;;  r               1    2[COMMON] PTR const unsigned char 
  8910 ;;		 -> change_pass@re_pass(4), login@spassword(4), 
  8911 ;;  n               2    3[COMMON] unsigned int 
  8912 ;; Auto vars:     Size  Location     Type
  8913 ;;  l               1    7[COMMON] PTR const unsigned char 
  8914 ;;		 -> change_pass@new_pass(4), login@upassword(4), 
  8915 ;; Return value:  Size  Location     Type
  8916 ;;                  2    2[COMMON] int 
  8917 ;; Registers used:
  8918 ;;		wreg, fsr0l, fsr0h, status,2, status,0, btemp+1
  8919 ;; Tracked objects:
  8920 ;;		On entry : 0/0
  8921 ;;		On exit  : 0/0
  8922 ;;		Unchanged: 0/0
  8923 ;; Data sizes:     COMMON   BANK0   BANK1   BANK3   BANK2
  8924 ;;      Params:         3       0       0       0       0
  8925 ;;      Locals:         1       0       0       0       0
  8926 ;;      Temps:          2       0       0       0       0
  8927 ;;      Totals:         6       0       0       0       0
  8928 ;;Total ram usage:        6 bytes
  8929 ;; Hardware stack levels used: 1
  8930 ;; Hardware stack levels required when called: 1
  8931 ;; This function calls:
  8932 ;;		Nothing
  8933 ;; This function is called by:
  8934 ;;		_login
  8935 ;;		_change_pass
  8936 ;; This function uses a non-reentrant model
  8937 ;;
  8938                           
  8939     0A2C                     _strncmp:	
  8940                           ;psect for function _strncmp
  8941                           
  8942                           
  8943                           ;incstack = 0
  8944                           ; Regs used in _strncmp: [wreg-fsr0h+status,2+status,0+btemp+1]
  8945                           ;strncmp@l stored from wreg
  8946     0A2C  00F7               	movwf	strncmp@l
  8947     0A2D                     l2639:
  8948     0A2D  3001               	movlw	1
  8949     0A2E  02F3               	subwf	strncmp@n,f
  8950     0A2F  3000               	movlw	0
  8951     0A30  1C03               	skipc
  8952     0A31  03F4               	decf	strncmp@n+1,f
  8953     0A32  02F4               	subwf	strncmp@n+1,f
  8954     0A33  0A73               	incf	strncmp@n,w
  8955     0A34  1D03               	skipz
  8956     0A35  2A3A               	goto	u1751
  8957     0A36  0A74               	incf	strncmp@n+1,w
  8958     0A37  1D03               	btfss	3,2
  8959     0A38  2A3A               	goto	u1751
  8960     0A39  2A3B               	goto	u1750
  8961     0A3A                     u1751:
  8962     0A3A  2A4C               	goto	l2649
  8963     0A3B                     u1750:
  8964     0A3B                     l2641:
  8965     0A3B  01F2               	clrf	?_strncmp
  8966     0A3C  01F3               	clrf	?_strncmp+1
  8967     0A3D  2A7B               	goto	l1132
  8968     0A3E                     l2645:
  8969     0A3E  3001               	movlw	1
  8970     0A3F  00FF               	movwf	btemp+1
  8971     0A40  087F               	movf	btemp+1,w
  8972     0A41  07F7               	addwf	strncmp@l,f
  8973     0A42  3001               	movlw	1
  8974     0A43  00FF               	movwf	btemp+1
  8975     0A44  087F               	movf	btemp+1,w
  8976     0A45  07F2               	addwf	strncmp@r,f
  8977     0A46                     l2647:
  8978     0A46  3001               	movlw	1
  8979     0A47  02F3               	subwf	strncmp@n,f
  8980     0A48  3000               	movlw	0
  8981     0A49  1C03               	skipc
  8982     0A4A  03F4               	decf	strncmp@n+1,f
  8983     0A4B  02F4               	subwf	strncmp@n+1,f
  8984     0A4C                     l2649:
  8985     0A4C  0877               	movf	strncmp@l,w
  8986     0A4D  0084               	movwf	4
  8987     0A4E  1383               	bcf	3,7	;select IRP bank0
  8988     0A4F  0800               	movf	0,w
  8989     0A50  1903               	btfsc	3,2
  8990     0A51  2A53               	goto	u1761
  8991     0A52  2A54               	goto	u1760
  8992     0A53                     u1761:
  8993     0A53  2A6D               	goto	l2657
  8994     0A54                     u1760:
  8995     0A54                     l2651:
  8996     0A54  0872               	movf	strncmp@r,w
  8997     0A55  0084               	movwf	4
  8998     0A56  0800               	movf	0,w
  8999     0A57  1903               	btfsc	3,2
  9000     0A58  2A5A               	goto	u1771
  9001     0A59  2A5B               	goto	u1770
  9002     0A5A                     u1771:
  9003     0A5A  2A6D               	goto	l2657
  9004     0A5B                     u1770:
  9005     0A5B                     l2653:
  9006     0A5B  0873               	movf	strncmp@n,w
  9007     0A5C  0474               	iorwf	strncmp@n+1,w
  9008     0A5D  1903               	btfsc	3,2
  9009     0A5E  2A60               	goto	u1781
  9010     0A5F  2A61               	goto	u1780
  9011     0A60                     u1781:
  9012     0A60  2A6D               	goto	l2657
  9013     0A61                     u1780:
  9014     0A61                     l2655:
  9015     0A61  0872               	movf	strncmp@r,w
  9016     0A62  0084               	movwf	4
  9017     0A63  0800               	movf	0,w
  9018     0A64  00F5               	movwf	??_strncmp
  9019     0A65  0877               	movf	strncmp@l,w
  9020     0A66  0084               	movwf	4
  9021     0A67  0800               	movf	0,w
  9022     0A68  0675               	xorwf	??_strncmp,w
  9023     0A69  1903               	skipnz
  9024     0A6A  2A6C               	goto	u1791
  9025     0A6B  2A6D               	goto	u1790
  9026     0A6C                     u1791:
  9027     0A6C  2A3E               	goto	l2645
  9028     0A6D                     u1790:
  9029     0A6D                     l2657:
  9030     0A6D  0872               	movf	strncmp@r,w
  9031     0A6E  0084               	movwf	4
  9032     0A6F  0800               	movf	0,w
  9033     0A70  00F5               	movwf	??_strncmp
  9034     0A71  0877               	movf	strncmp@l,w
  9035     0A72  0084               	movwf	4
  9036     0A73  0800               	movf	0,w
  9037     0A74  00F6               	movwf	??_strncmp+1
  9038     0A75  0875               	movf	??_strncmp,w
  9039     0A76  0276               	subwf	??_strncmp+1,w
  9040     0A77  00F2               	movwf	?_strncmp
  9041     0A78  01F3               	clrf	?_strncmp+1
  9042     0A79  1C03               	skipc
  9043     0A7A  03F3               	decf	?_strncmp+1,f
  9044     0A7B                     l1132:
  9045     0A7B  0008               	return
  9046     0A7C                     __end_of_strncmp:
  9047                           
  9048                           	psect	text41
  9049     1650                     __ptext41:	
  9050 ;; *************** function _eeprom_at24C04_byte_write *****************
  9051 ;; Defined at:
  9052 ;;		line 29 in file "EEprom.c"
  9053 ;; Parameters:    Size  Location     Type
  9054 ;;  addr            1    wreg     unsigned char 
  9055 ;;  data            1    3[COMMON] unsigned char 
  9056 ;; Auto vars:     Size  Location     Type
  9057 ;;  addr            1    4[COMMON] unsigned char 
  9058 ;; Return value:  Size  Location     Type
  9059 ;;                  1    wreg      void 
  9060 ;; Registers used:
  9061 ;;		wreg, status,2, status,0, pclath, cstack
  9062 ;; Tracked objects:
  9063 ;;		On entry : 0/0
  9064 ;;		On exit  : 0/0
  9065 ;;		Unchanged: 0/0
  9066 ;; Data sizes:     COMMON   BANK0   BANK1   BANK3   BANK2
  9067 ;;      Params:         1       0       0       0       0
  9068 ;;      Locals:         1       0       0       0       0
  9069 ;;      Temps:          0       0       0       0       0
  9070 ;;      Totals:         2       0       0       0       0
  9071 ;;Total ram usage:        2 bytes
  9072 ;; Hardware stack levels used: 1
  9073 ;; Hardware stack levels required when called: 3
  9074 ;; This function calls:
  9075 ;;		_i2c_start
  9076 ;;		_i2c_stop
  9077 ;;		_i2c_write
  9078 ;; This function is called by:
  9079 ;;		_eeprom_at24C04_str_write
  9080 ;;		_clear_log
  9081 ;;		_change_pass
  9082 ;; This function uses a non-reentrant model
  9083 ;;
  9084                           
  9085     1650                     _eeprom_at24C04_byte_write:	
  9086                           ;psect for function _eeprom_at24C04_byte_write
  9087                           
  9088                           
  9089                           ;incstack = 0
  9090                           ; Regs used in _eeprom_at24C04_byte_write: [wreg+status,2+status,0+pclath+cstack]
  9091                           ;eeprom_at24C04_byte_write@addr stored from wreg
  9092     1650  00F4               	movwf	eeprom_at24C04_byte_write@addr
  9093     1651                     l3695:
  9094                           
  9095                           ;EEprom.c: 29: void eeprom_at24C04_byte_write(unsigned char addr, char data);EEprom.c: 3
      +                          0: {;EEprom.c: 31:     i2c_start();
  9096     1651  160A  118A  2541  160A  118A  	fcall	_i2c_start
  9097                           
  9098                           ;EEprom.c: 32:     i2c_write(0b10100000);
  9099     1656  30A0               	movlw	160
  9100     1657  160A  118A  2553  160A  118A  	fcall	_i2c_write
  9101                           
  9102                           ;EEprom.c: 33:     i2c_write(addr);
  9103     165C  0874               	movf	eeprom_at24C04_byte_write@addr,w
  9104     165D  160A  118A  2553  160A  118A  	fcall	_i2c_write
  9105                           
  9106                           ;EEprom.c: 34:     i2c_write(data);
  9107     1662  0873               	movf	eeprom_at24C04_byte_write@data,w
  9108     1663  160A  118A  2553  160A  118A  	fcall	_i2c_write
  9109                           
  9110                           ;EEprom.c: 35:     i2c_stop();
  9111     1668  160A  118A  254A  160A  118A  	fcall	_i2c_stop
  9112     166D                     l386:
  9113     166D  0008               	return
  9114     166E                     __end_of_eeprom_at24C04_byte_write:
  9115                           
  9116                           	psect	text42
  9117     1553                     __ptext42:	
  9118 ;; *************** function _i2c_write *****************
  9119 ;; Defined at:
  9120 ;;		line 75 in file "i2c.c"
  9121 ;; Parameters:    Size  Location     Type
  9122 ;;  data            1    wreg     unsigned char 
  9123 ;; Auto vars:     Size  Location     Type
  9124 ;;  data            1    2[COMMON] unsigned char 
  9125 ;; Return value:  Size  Location     Type
  9126 ;;                  2  212[None  ] int 
  9127 ;; Registers used:
  9128 ;;		wreg, status,2, status,0, pclath, cstack
  9129 ;; Tracked objects:
  9130 ;;		On entry : 0/0
  9131 ;;		On exit  : 0/0
  9132 ;;		Unchanged: 0/0
  9133 ;; Data sizes:     COMMON   BANK0   BANK1   BANK3   BANK2
  9134 ;;      Params:         0       0       0       0       0
  9135 ;;      Locals:         1       0       0       0       0
  9136 ;;      Temps:          0       0       0       0       0
  9137 ;;      Totals:         1       0       0       0       0
  9138 ;;Total ram usage:        1 bytes
  9139 ;; Hardware stack levels used: 1
  9140 ;; Hardware stack levels required when called: 2
  9141 ;; This function calls:
  9142 ;;		_i2c_wait_for_idle
  9143 ;; This function is called by:
  9144 ;;		_read_ds1307
  9145 ;;		_write_ds1307
  9146 ;;		_eeprom_at24C04_read
  9147 ;;		_eeprom_at24C04_byte_write
  9148 ;; This function uses a non-reentrant model
  9149 ;;
  9150                           
  9151     1553                     _i2c_write:	
  9152                           ;psect for function _i2c_write
  9153                           
  9154                           
  9155                           ;incstack = 0
  9156                           ; Regs used in _i2c_write: [wreg+status,2+status,0+pclath+cstack]
  9157                           ;i2c_write@data stored from wreg
  9158     1553  00F2               	movwf	i2c_write@data
  9159     1554                     l3647:
  9160                           
  9161                           ;i2c.c: 75: int i2c_write(unsigned char data);i2c.c: 76: {;i2c.c: 77:     i2c_wait_for_i
      +                          dle();
  9162     1554  160A  118A  258C  160A  118A  	fcall	_i2c_wait_for_idle
  9163     1559                     l3649:
  9164                           
  9165                           ;i2c.c: 78:     SSPBUF = data;
  9166     1559  0872               	movf	i2c_write@data,w
  9167     155A  1283               	bcf	3,5	;RP0=0, select bank0
  9168     155B  1303               	bcf	3,6	;RP1=0, select bank0
  9169     155C  0093               	movwf	19	;volatile
  9170     155D                     l3651:
  9171     155D                     l279:	
  9172                           ;i2c.c: 80:     return !ACKSTAT;;	Return value of _i2c_write is never used
  9173                           
  9174     155D  0008               	return
  9175     155E                     __end_of_i2c_write:
  9176                           
  9177                           	psect	text43
  9178     154A                     __ptext43:	
  9179 ;; *************** function _i2c_stop *****************
  9180 ;; Defined at:
  9181 ;;		line 45 in file "i2c.c"
  9182 ;; Parameters:    Size  Location     Type
  9183 ;;		None
  9184 ;; Auto vars:     Size  Location     Type
  9185 ;;		None
  9186 ;; Return value:  Size  Location     Type
  9187 ;;                  1    wreg      void 
  9188 ;; Registers used:
  9189 ;;		wreg, status,2, status,0, pclath, cstack
  9190 ;; Tracked objects:
  9191 ;;		On entry : 0/0
  9192 ;;		On exit  : 0/0
  9193 ;;		Unchanged: 0/0
  9194 ;; Data sizes:     COMMON   BANK0   BANK1   BANK3   BANK2
  9195 ;;      Params:         0       0       0       0       0
  9196 ;;      Locals:         0       0       0       0       0
  9197 ;;      Temps:          0       0       0       0       0
  9198 ;;      Totals:         0       0       0       0       0
  9199 ;;Total ram usage:        0 bytes
  9200 ;; Hardware stack levels used: 1
  9201 ;; Hardware stack levels required when called: 2
  9202 ;; This function calls:
  9203 ;;		_i2c_wait_for_idle
  9204 ;; This function is called by:
  9205 ;;		_read_ds1307
  9206 ;;		_write_ds1307
  9207 ;;		_i2c_rep_start
  9208 ;;		_eeprom_at24C04_read
  9209 ;;		_eeprom_at24C04_byte_write
  9210 ;; This function uses a non-reentrant model
  9211 ;;
  9212                           
  9213     154A                     _i2c_stop:	
  9214                           ;psect for function _i2c_stop
  9215                           
  9216     154A                     l3655:	
  9217                           ;incstack = 0
  9218                           ; Regs used in _i2c_stop: [wreg+status,2+status,0+pclath+cstack]
  9219                           
  9220                           
  9221                           ;i2c.c: 47:     i2c_wait_for_idle();
  9222     154A  160A  118A  258C  160A  118A  	fcall	_i2c_wait_for_idle
  9223     154F                     l3657:
  9224                           
  9225                           ;i2c.c: 48:     PEN = 1;
  9226     154F  1683               	bsf	3,5	;RP0=1, select bank1
  9227     1550  1303               	bcf	3,6	;RP1=0, select bank1
  9228     1551  1511               	bsf	17,2	;volatile
  9229     1552                     l271:
  9230     1552  0008               	return
  9231     1553                     __end_of_i2c_stop:
  9232                           
  9233                           	psect	text44
  9234     1541                     __ptext44:	
  9235 ;; *************** function _i2c_start *****************
  9236 ;; Defined at:
  9237 ;;		line 32 in file "i2c.c"
  9238 ;; Parameters:    Size  Location     Type
  9239 ;;		None
  9240 ;; Auto vars:     Size  Location     Type
  9241 ;;		None
  9242 ;; Return value:  Size  Location     Type
  9243 ;;                  1    wreg      void 
  9244 ;; Registers used:
  9245 ;;		wreg, status,2, status,0, pclath, cstack
  9246 ;; Tracked objects:
  9247 ;;		On entry : 0/0
  9248 ;;		On exit  : 0/0
  9249 ;;		Unchanged: 0/0
  9250 ;; Data sizes:     COMMON   BANK0   BANK1   BANK3   BANK2
  9251 ;;      Params:         0       0       0       0       0
  9252 ;;      Locals:         0       0       0       0       0
  9253 ;;      Temps:          0       0       0       0       0
  9254 ;;      Totals:         0       0       0       0       0
  9255 ;;Total ram usage:        0 bytes
  9256 ;; Hardware stack levels used: 1
  9257 ;; Hardware stack levels required when called: 2
  9258 ;; This function calls:
  9259 ;;		_i2c_wait_for_idle
  9260 ;; This function is called by:
  9261 ;;		_read_ds1307
  9262 ;;		_write_ds1307
  9263 ;;		_i2c_rep_start
  9264 ;;		_eeprom_at24C04_read
  9265 ;;		_eeprom_at24C04_byte_write
  9266 ;; This function uses a non-reentrant model
  9267 ;;
  9268                           
  9269     1541                     _i2c_start:	
  9270                           ;psect for function _i2c_start
  9271                           
  9272     1541                     l3643:	
  9273                           ;incstack = 0
  9274                           ; Regs used in _i2c_start: [wreg+status,2+status,0+pclath+cstack]
  9275                           
  9276                           
  9277                           ;i2c.c: 34:     i2c_wait_for_idle();
  9278     1541  160A  118A  258C  160A  118A  	fcall	_i2c_wait_for_idle
  9279     1546                     l3645:
  9280                           
  9281                           ;i2c.c: 35:     SEN = 1;
  9282     1546  1683               	bsf	3,5	;RP0=1, select bank1
  9283     1547  1303               	bcf	3,6	;RP1=0, select bank1
  9284     1548  1411               	bsf	17,0	;volatile
  9285     1549                     l265:
  9286     1549  0008               	return
  9287     154A                     __end_of_i2c_start:
  9288                           
  9289                           	psect	text45
  9290     158C                     __ptext45:	
  9291 ;; *************** function _i2c_wait_for_idle *****************
  9292 ;; Defined at:
  9293 ;;		line 26 in file "i2c.c"
  9294 ;; Parameters:    Size  Location     Type
  9295 ;;		None
  9296 ;; Auto vars:     Size  Location     Type
  9297 ;;		None
  9298 ;; Return value:  Size  Location     Type
  9299 ;;                  1    wreg      void 
  9300 ;; Registers used:
  9301 ;;		wreg, status,2
  9302 ;; Tracked objects:
  9303 ;;		On entry : 0/0
  9304 ;;		On exit  : 0/0
  9305 ;;		Unchanged: 0/0
  9306 ;; Data sizes:     COMMON   BANK0   BANK1   BANK3   BANK2
  9307 ;;      Params:         0       0       0       0       0
  9308 ;;      Locals:         0       0       0       0       0
  9309 ;;      Temps:          0       0       0       0       0
  9310 ;;      Totals:         0       0       0       0       0
  9311 ;;Total ram usage:        0 bytes
  9312 ;; Hardware stack levels used: 1
  9313 ;; Hardware stack levels required when called: 1
  9314 ;; This function calls:
  9315 ;;		Nothing
  9316 ;; This function is called by:
  9317 ;;		_i2c_start
  9318 ;;		_i2c_stop
  9319 ;;		_i2c_read
  9320 ;;		_i2c_write
  9321 ;; This function uses a non-reentrant model
  9322 ;;
  9323                           
  9324     158C                     _i2c_wait_for_idle:	
  9325                           ;psect for function _i2c_wait_for_idle
  9326                           
  9327     158C                     l3639:	
  9328                           ;incstack = 0
  9329                           ; Regs used in _i2c_wait_for_idle: [wreg+status,2]
  9330                           
  9331     158C                     l259:	
  9332                           ;i2c.c: 29:     while (R_nW || (SSPCON2 & 0x1F));
  9333                           
  9334     158C  1683               	bsf	3,5	;RP0=1, select bank1
  9335     158D  1303               	bcf	3,6	;RP1=0, select bank1
  9336     158E  1914               	btfsc	20,2	;volatile
  9337     158F  2D91               	goto	u3031
  9338     1590  2D92               	goto	u3030
  9339     1591                     u3031:
  9340     1591  2D8C               	goto	l259
  9341     1592                     u3030:
  9342     1592                     l3641:
  9343     1592  0811               	movf	17,w	;volatile
  9344     1593  391F               	andlw	31
  9345     1594  1D03               	btfss	3,2
  9346     1595  2D97               	goto	u3041
  9347     1596  2D98               	goto	u3040
  9348     1597                     u3041:
  9349     1597  2D8C               	goto	l259
  9350     1598                     u3040:
  9351     1598                     l262:
  9352     1598  0008               	return
  9353     1599                     __end_of_i2c_wait_for_idle:
  9354                           
  9355                           	psect	text46
  9356     161B                     __ptext46:	
  9357 ;; *************** function _cursor_on *****************
  9358 ;; Defined at:
  9359 ;;		line 86 in file "clcd.c"
  9360 ;; Parameters:    Size  Location     Type
  9361 ;;  address         1    wreg     unsigned char 
  9362 ;; Auto vars:     Size  Location     Type
  9363 ;;  address         1    7[COMMON] unsigned char 
  9364 ;; Return value:  Size  Location     Type
  9365 ;;                  1    wreg      void 
  9366 ;; Registers used:
  9367 ;;		wreg, status,2, status,0, pclath, cstack
  9368 ;; Tracked objects:
  9369 ;;		On entry : 0/0
  9370 ;;		On exit  : 0/0
  9371 ;;		Unchanged: 0/0
  9372 ;; Data sizes:     COMMON   BANK0   BANK1   BANK3   BANK2
  9373 ;;      Params:         0       0       0       0       0
  9374 ;;      Locals:         1       0       0       0       0
  9375 ;;      Temps:          1       0       0       0       0
  9376 ;;      Totals:         2       0       0       0       0
  9377 ;;Total ram usage:        2 bytes
  9378 ;; Hardware stack levels used: 1
  9379 ;; Hardware stack levels required when called: 2
  9380 ;; This function calls:
  9381 ;;		_clcd_write
  9382 ;; This function is called by:
  9383 ;;		_login_screen
  9384 ;;		_change_pass
  9385 ;; This function uses a non-reentrant model
  9386 ;;
  9387                           
  9388     161B                     _cursor_on:	
  9389                           ;psect for function _cursor_on
  9390                           
  9391                           
  9392                           ;incstack = 0
  9393                           ; Regs used in _cursor_on: [wreg+status,2+status,0+pclath+cstack]
  9394                           ;cursor_on@address stored from wreg
  9395     161B  00F7               	movwf	cursor_on@address
  9396     161C                     l3741:
  9397                           
  9398                           ;clcd.c: 86: void cursor_on(unsigned char address);clcd.c: 87: {;clcd.c: 88:     clcd_wr
      +                          ite(address , 0);
  9399     161C  01F2               	clrf	clcd_write@mode
  9400     161D  0877               	movf	cursor_on@address,w
  9401     161E  120A  158A  20B1  160A  118A  	fcall	_clcd_write
  9402     1623                     l3743:
  9403                           
  9404                           ;clcd.c: 89:        _delay((unsigned long)((100)*(20000000/4000000.0)));
  9405     1623  30A6               	movlw	166
  9406     1624  00F6               	movwf	??_cursor_on
  9407     1625                     u4387:
  9408     1625  0BF6               	decfsz	??_cursor_on,f
  9409     1626  2E25               	goto	u4387
  9410     1627  0000               	nop
  9411     1628                     l3745:
  9412                           
  9413                           ;clcd.c: 90:        clcd_write(0x0F, 0);
  9414     1628  01F2               	clrf	clcd_write@mode
  9415     1629  300F               	movlw	15
  9416     162A  120A  158A  20B1  160A  118A  	fcall	_clcd_write
  9417                           
  9418                           ;clcd.c: 91:        _delay((unsigned long)((100)*(20000000/4000000.0)));
  9419     162F  30A6               	movlw	166
  9420     1630  00F6               	movwf	??_cursor_on
  9421     1631                     u4397:
  9422     1631  0BF6               	decfsz	??_cursor_on,f
  9423     1632  2E31               	goto	u4397
  9424     1633  0000               	nop
  9425     1634                     l201:
  9426     1634  0008               	return
  9427     1635                     __end_of_cursor_on:
  9428                           
  9429                           	psect	text47
  9430     157F                     __ptext47:	
  9431 ;; *************** function _cursor_off *****************
  9432 ;; Defined at:
  9433 ;;		line 94 in file "clcd.c"
  9434 ;; Parameters:    Size  Location     Type
  9435 ;;		None
  9436 ;; Auto vars:     Size  Location     Type
  9437 ;;		None
  9438 ;; Return value:  Size  Location     Type
  9439 ;;                  1    wreg      void 
  9440 ;; Registers used:
  9441 ;;		wreg, status,2, status,0, pclath, cstack
  9442 ;; Tracked objects:
  9443 ;;		On entry : 0/0
  9444 ;;		On exit  : 0/0
  9445 ;;		Unchanged: 0/0
  9446 ;; Data sizes:     COMMON   BANK0   BANK1   BANK3   BANK2
  9447 ;;      Params:         0       0       0       0       0
  9448 ;;      Locals:         0       0       0       0       0
  9449 ;;      Temps:          1       0       0       0       0
  9450 ;;      Totals:         1       0       0       0       0
  9451 ;;Total ram usage:        1 bytes
  9452 ;; Hardware stack levels used: 1
  9453 ;; Hardware stack levels required when called: 2
  9454 ;; This function calls:
  9455 ;;		_clcd_write
  9456 ;; This function is called by:
  9457 ;;		_login
  9458 ;;		_change_pass
  9459 ;; This function uses a non-reentrant model
  9460 ;;
  9461                           
  9462     157F                     _cursor_off:	
  9463                           ;psect for function _cursor_off
  9464                           
  9465     157F                     l3835:	
  9466                           ;incstack = 0
  9467                           ; Regs used in _cursor_off: [wreg+status,2+status,0+pclath+cstack]
  9468                           
  9469                           
  9470                           ;clcd.c: 96:        clcd_write(0x0C, 0);
  9471     157F  01F2               	clrf	clcd_write@mode
  9472     1580  300C               	movlw	12
  9473     1581  120A  158A  20B1  160A  118A  	fcall	_clcd_write
  9474     1586                     l3837:
  9475                           
  9476                           ;clcd.c: 97:        _delay((unsigned long)((100)*(20000000/4000000.0)));
  9477     1586  30A6               	movlw	166
  9478     1587  00F6               	movwf	??_cursor_off
  9479     1588                     u4407:
  9480     1588  0BF6               	decfsz	??_cursor_off,f
  9481     1589  2D88               	goto	u4407
  9482     158A  0000               	nop
  9483     158B                     l204:
  9484     158B  0008               	return
  9485     158C                     __end_of_cursor_off:
  9486                           
  9487                           	psect	text48
  9488     15A6                     __ptext48:	
  9489 ;; *************** function _clear_display *****************
  9490 ;; Defined at:
  9491 ;;		line 81 in file "clcd.c"
  9492 ;; Parameters:    Size  Location     Type
  9493 ;;		None
  9494 ;; Auto vars:     Size  Location     Type
  9495 ;;		None
  9496 ;; Return value:  Size  Location     Type
  9497 ;;                  1    wreg      void 
  9498 ;; Registers used:
  9499 ;;		wreg, status,2, status,0, pclath, cstack
  9500 ;; Tracked objects:
  9501 ;;		On entry : 0/0
  9502 ;;		On exit  : 0/0
  9503 ;;		Unchanged: 0/0
  9504 ;; Data sizes:     COMMON   BANK0   BANK1   BANK3   BANK2
  9505 ;;      Params:         0       0       0       0       0
  9506 ;;      Locals:         0       0       0       0       0
  9507 ;;      Temps:          2       0       0       0       0
  9508 ;;      Totals:         2       0       0       0       0
  9509 ;;Total ram usage:        2 bytes
  9510 ;; Hardware stack levels used: 1
  9511 ;; Hardware stack levels required when called: 2
  9512 ;; This function calls:
  9513 ;;		_clcd_write
  9514 ;; This function is called by:
  9515 ;;		_main
  9516 ;;		_login_screen
  9517 ;;		_login
  9518 ;;		_display_menu
  9519 ;;		_view_log
  9520 ;;		_clear_log
  9521 ;;		_download_log
  9522 ;;		_change_pass
  9523 ;; This function uses a non-reentrant model
  9524 ;;
  9525                           
  9526     15A6                     _clear_display:	
  9527                           ;psect for function _clear_display
  9528                           
  9529     15A6                     l3705:	
  9530                           ;incstack = 0
  9531                           ; Regs used in _clear_display: [wreg+status,2+status,0+pclath+cstack]
  9532                           
  9533                           
  9534                           ;clcd.c: 83: clcd_write(0x01, 0);
  9535     15A6  01F2               	clrf	clcd_write@mode
  9536     15A7  3001               	movlw	1
  9537     15A8  120A  158A  20B1  160A  118A  	fcall	_clcd_write
  9538     15AD                     l3707:
  9539                           
  9540                           ;clcd.c: 84:             _delay((unsigned long)((500)*(20000000/4000000.0)));
  9541     15AD  3004               	movlw	4
  9542     15AE  00F7               	movwf	??_clear_display+1
  9543     15AF  303D               	movlw	61
  9544     15B0  00F6               	movwf	??_clear_display
  9545     15B1                     u4417:
  9546     15B1  0BF6               	decfsz	??_clear_display,f
  9547     15B2  2DB1               	goto	u4417
  9548     15B3  0BF7               	decfsz	??_clear_display+1,f
  9549     15B4  2DB1               	goto	u4417
  9550     15B5  2DB6               	nop2
  9551     15B6                     l198:
  9552     15B6  0008               	return
  9553     15B7                     __end_of_clear_display:
  9554                           
  9555                           	psect	text49
  9556     15EF                     __ptext49:	
  9557 ;; *************** function _clcd_putch *****************
  9558 ;; Defined at:
  9559 ;;		line 65 in file "clcd.c"
  9560 ;; Parameters:    Size  Location     Type
  9561 ;;  data            1    wreg     const unsigned char 
  9562 ;;  addr            1    0[BANK0 ] unsigned char 
  9563 ;; Auto vars:     Size  Location     Type
  9564 ;;  data            1    1[BANK0 ] const unsigned char 
  9565 ;; Return value:  Size  Location     Type
  9566 ;;                  1    wreg      void 
  9567 ;; Registers used:
  9568 ;;		wreg, status,2, status,0, pclath, cstack
  9569 ;; Tracked objects:
  9570 ;;		On entry : 0/0
  9571 ;;		On exit  : 0/0
  9572 ;;		Unchanged: 0/0
  9573 ;; Data sizes:     COMMON   BANK0   BANK1   BANK3   BANK2
  9574 ;;      Params:         0       1       0       0       0
  9575 ;;      Locals:         0       1       0       0       0
  9576 ;;      Temps:          0       0       0       0       0
  9577 ;;      Totals:         0       2       0       0       0
  9578 ;;Total ram usage:        2 bytes
  9579 ;; Hardware stack levels used: 1
  9580 ;; Hardware stack levels required when called: 2
  9581 ;; This function calls:
  9582 ;;		_clcd_write
  9583 ;; This function is called by:
  9584 ;;		_display_dashboard
  9585 ;;		_login
  9586 ;;		_set_time
  9587 ;;		_change_pass
  9588 ;; This function uses a non-reentrant model
  9589 ;;
  9590                           
  9591     15EF                     _clcd_putch:	
  9592                           ;psect for function _clcd_putch
  9593                           
  9594                           
  9595                           ;incstack = 0
  9596                           ; Regs used in _clcd_putch: [wreg+status,2+status,0+pclath+cstack]
  9597                           ;clcd_putch@data stored from wreg
  9598     15EF  1283               	bcf	3,5	;RP0=0, select bank0
  9599     15F0  1303               	bcf	3,6	;RP1=0, select bank0
  9600     15F1  00A1               	movwf	clcd_putch@data
  9601     15F2                     l3833:
  9602                           
  9603                           ;clcd.c: 65: void clcd_putch(const char data, unsigned char addr);clcd.c: 66: {;clcd.c: 
      +                          67:     clcd_write(addr, 0);
  9604     15F2  01F2               	clrf	clcd_write@mode
  9605     15F3  0820               	movf	clcd_putch@addr,w
  9606     15F4  120A  158A  20B1  160A  118A  	fcall	_clcd_write
  9607                           
  9608                           ;clcd.c: 68:     clcd_write(data, 1);
  9609     15F9  01F2               	clrf	clcd_write@mode
  9610     15FA  0AF2               	incf	clcd_write@mode,f
  9611     15FB  1283               	bcf	3,5	;RP0=0, select bank0
  9612     15FC  1303               	bcf	3,6	;RP1=0, select bank0
  9613     15FD  0821               	movf	clcd_putch@data,w
  9614     15FE  120A  158A  20B1  160A  118A  	fcall	_clcd_write
  9615     1603                     l189:
  9616     1603  0008               	return
  9617     1604                     __end_of_clcd_putch:
  9618                           
  9619                           	psect	text50
  9620     17A2                     __ptext50:	
  9621 ;; *************** function _clcd_print *****************
  9622 ;; Defined at:
  9623 ;;		line 71 in file "clcd.c"
  9624 ;; Parameters:    Size  Location     Type
  9625 ;;  str             2    6[COMMON] PTR const unsigned char 
  9626 ;;		 -> STR_35(14), STR_34(10), STR_33(16), STR_32(16), 
  9627 ;;		 -> STR_30(9), STR_29(11), fetch_data(17), STR_28(13), 
  9628 ;;		 -> set_tm(9), STR_27(4), STR_26(4), STR_25(9), 
  9629 ;;		 -> STR_24(12), STR_23(13), STR_22(10), STR_21(9), 
  9630 ;;		 -> STR_20(14), STR_19(11), STR_18(16), STR_17(15), 
  9631 ;;		 -> STR_16(17), STR_15(17), time(9), STR_14(15), 
  9632 ;;		 -> STR_13(17), STR_12(17), STR_11(17), STR_10(17), 
  9633 ;;		 -> STR_9(17), main@event(3), 
  9634 ;;  addr            1    8[COMMON] unsigned char 
  9635 ;; Auto vars:     Size  Location     Type
  9636 ;;		None
  9637 ;; Return value:  Size  Location     Type
  9638 ;;                  1    wreg      void 
  9639 ;; Registers used:
  9640 ;;		wreg, fsr0l, fsr0h, status,2, status,0, btemp+1, pclath, cstack
  9641 ;; Tracked objects:
  9642 ;;		On entry : 0/0
  9643 ;;		On exit  : 0/0
  9644 ;;		Unchanged: 0/0
  9645 ;; Data sizes:     COMMON   BANK0   BANK1   BANK3   BANK2
  9646 ;;      Params:         3       0       0       0       0
  9647 ;;      Locals:         0       0       0       0       0
  9648 ;;      Temps:          0       0       0       0       0
  9649 ;;      Totals:         3       0       0       0       0
  9650 ;;Total ram usage:        3 bytes
  9651 ;; Hardware stack levels used: 1
  9652 ;; Hardware stack levels required when called: 2
  9653 ;; This function calls:
  9654 ;;		_clcd_write
  9655 ;; This function is called by:
  9656 ;;		_main
  9657 ;;		_display_dashboard
  9658 ;;		_login_screen
  9659 ;;		_login
  9660 ;;		_display_menu
  9661 ;;		_set_time
  9662 ;;		_view_log
  9663 ;;		_download_log
  9664 ;;		_change_pass
  9665 ;; This function uses a non-reentrant model
  9666 ;;
  9667                           
  9668     17A2                     _clcd_print:	
  9669                           ;psect for function _clcd_print
  9670                           
  9671     17A2                     l3709:	
  9672                           ;incstack = 0
  9673                           ; Regs used in _clcd_print: [wreg-fsr0h+status,2+status,0+btemp+1+pclath+cstack]
  9674                           
  9675                           
  9676                           ;clcd.c: 71: void clcd_print(const char *str, unsigned char addr);clcd.c: 72: {;clcd.c: 
      +                          73:     clcd_write(addr, 0);
  9677     17A2  01F2               	clrf	clcd_write@mode
  9678     17A3  0878               	movf	clcd_print@addr,w
  9679     17A4  120A  158A  20B1  160A  118A  	fcall	_clcd_write
  9680                           
  9681                           ;clcd.c: 75:     while (*str != '\0')
  9682     17A9  2FC0               	goto	l3715
  9683     17AA                     l3711:
  9684                           
  9685                           ;clcd.c: 76:     {;clcd.c: 77:         clcd_write(*str, 1);
  9686     17AA  01F2               	clrf	clcd_write@mode
  9687     17AB  0AF2               	incf	clcd_write@mode,f
  9688     17AC  0877               	movf	clcd_print@str+1,w
  9689     17AD  00FF               	movwf	btemp+1
  9690     17AE  0876               	movf	clcd_print@str,w
  9691     17AF  0084               	movwf	4
  9692     17B0  160A  118A  2000  160A  118A  	fcall	stringtab
  9693     17B5  120A  158A  20B1  160A  118A  	fcall	_clcd_write
  9694     17BA                     l3713:
  9695                           
  9696                           ;clcd.c: 78:         str++;
  9697     17BA  3001               	movlw	1
  9698     17BB  07F6               	addwf	clcd_print@str,f
  9699     17BC  1803               	skipnc
  9700     17BD  0AF7               	incf	clcd_print@str+1,f
  9701     17BE  3000               	movlw	0
  9702     17BF  07F7               	addwf	clcd_print@str+1,f
  9703     17C0                     l3715:
  9704                           
  9705                           ;clcd.c: 75:     while (*str != '\0')
  9706     17C0  0877               	movf	clcd_print@str+1,w
  9707     17C1  1283               	bcf	3,5	;RP0=0, select bank0
  9708     17C2  1303               	bcf	3,6	;RP1=0, select bank0
  9709     17C3  00FF               	movwf	btemp+1
  9710     17C4  0876               	movf	clcd_print@str,w
  9711     17C5  0084               	movwf	4
  9712     17C6  160A  118A  2000  160A  118A  	fcall	stringtab
  9713     17CB  3A00               	xorlw	0
  9714     17CC  1D03               	skipz
  9715     17CD  2FCF               	goto	u3101
  9716     17CE  2FD0               	goto	u3100
  9717     17CF                     u3101:
  9718     17CF  2FAA               	goto	l3711
  9719     17D0                     u3100:
  9720     17D0                     l195:
  9721     17D0  0008               	return
  9722     17D1                     __end_of_clcd_print:
  9723                           
  9724                           	psect	text51
  9725     08B1                     __ptext51:	
  9726 ;; *************** function _clcd_write *****************
  9727 ;; Defined at:
  9728 ;;		line 13 in file "clcd.c"
  9729 ;; Parameters:    Size  Location     Type
  9730 ;;  byte            1    wreg     unsigned char 
  9731 ;;  mode            1    2[COMMON] unsigned char 
  9732 ;; Auto vars:     Size  Location     Type
  9733 ;;  byte            1    5[COMMON] unsigned char 
  9734 ;; Return value:  Size  Location     Type
  9735 ;;                  1    wreg      void 
  9736 ;; Registers used:
  9737 ;;		wreg, status,2, status,0
  9738 ;; Tracked objects:
  9739 ;;		On entry : 0/0
  9740 ;;		On exit  : 0/0
  9741 ;;		Unchanged: 0/0
  9742 ;; Data sizes:     COMMON   BANK0   BANK1   BANK3   BANK2
  9743 ;;      Params:         1       0       0       0       0
  9744 ;;      Locals:         1       0       0       0       0
  9745 ;;      Temps:          2       0       0       0       0
  9746 ;;      Totals:         4       0       0       0       0
  9747 ;;Total ram usage:        4 bytes
  9748 ;; Hardware stack levels used: 1
  9749 ;; Hardware stack levels required when called: 1
  9750 ;; This function calls:
  9751 ;;		Nothing
  9752 ;; This function is called by:
  9753 ;;		_init_display_controller
  9754 ;;		_clcd_putch
  9755 ;;		_clcd_print
  9756 ;;		_clear_display
  9757 ;;		_cursor_on
  9758 ;;		_cursor_off
  9759 ;; This function uses a non-reentrant model
  9760 ;;
  9761                           
  9762     08B1                     _clcd_write:	
  9763                           ;psect for function _clcd_write
  9764                           
  9765                           
  9766                           ;incstack = 0
  9767                           ; Regs used in _clcd_write: [wreg+status,2+status,0]
  9768                           ;clcd_write@byte stored from wreg
  9769     08B1  00F5               	movwf	clcd_write@byte
  9770     08B2                     l3659:
  9771                           
  9772                           ;clcd.c: 13: void clcd_write(unsigned char byte, unsigned char mode);clcd.c: 14: {;clcd.
      +                          c: 15:     RE2 = mode;
  9773     08B2  1872               	btfsc	clcd_write@mode,0
  9774     08B3  28B5               	goto	u3051
  9775     08B4  28B9               	goto	u3050
  9776     08B5                     u3051:
  9777     08B5  1283               	bcf	3,5	;RP0=0, select bank0
  9778     08B6  1303               	bcf	3,6	;RP1=0, select bank0
  9779     08B7  1509               	bsf	9,2	;volatile
  9780     08B8  28BC               	goto	u3064
  9781     08B9                     u3050:
  9782     08B9  1283               	bcf	3,5	;RP0=0, select bank0
  9783     08BA  1303               	bcf	3,6	;RP1=0, select bank0
  9784     08BB  1109               	bcf	9,2	;volatile
  9785     08BC                     u3064:
  9786     08BC                     l3661:
  9787                           
  9788                           ;clcd.c: 17:     PORTD = byte & 0xF0;
  9789     08BC  0875               	movf	clcd_write@byte,w
  9790     08BD  39F0               	andlw	240
  9791     08BE  0088               	movwf	8	;volatile
  9792     08BF                     l3663:
  9793                           
  9794                           ;clcd.c: 18:     RE1 = 1;
  9795     08BF  1489               	bsf	9,1	;volatile
  9796     08C0                     l3665:
  9797                           
  9798                           ;clcd.c: 19:     _delay((unsigned long)((100)*(20000000/4000000.0)));
  9799     08C0  30A6               	movlw	166
  9800     08C1  00F3               	movwf	??_clcd_write
  9801     08C2                     u4427:
  9802     08C2  0BF3               	decfsz	??_clcd_write,f
  9803     08C3  28C2               	goto	u4427
  9804     08C4  0000               	nop
  9805     08C5                     l3667:
  9806                           
  9807                           ;clcd.c: 20:     RE1 = 0;
  9808     08C5  1283               	bcf	3,5	;RP0=0, select bank0
  9809     08C6  1303               	bcf	3,6	;RP1=0, select bank0
  9810     08C7  1089               	bcf	9,1	;volatile
  9811     08C8                     l3669:
  9812                           
  9813                           ;clcd.c: 22:     PORTD = (byte & 0x0F) << 4;
  9814     08C8  0875               	movf	clcd_write@byte,w
  9815     08C9  390F               	andlw	15
  9816     08CA  00F3               	movwf	??_clcd_write
  9817     08CB  3003               	movlw	3
  9818     08CC                     u3075:
  9819     08CC  1003               	clrc
  9820     08CD  0DF3               	rlf	??_clcd_write,f
  9821     08CE  3EFF               	addlw	-1
  9822     08CF  1D03               	skipz
  9823     08D0  28CC               	goto	u3075
  9824     08D1  1003               	clrc
  9825     08D2  0D73               	rlf	??_clcd_write,w
  9826     08D3  0088               	movwf	8	;volatile
  9827     08D4                     l3671:
  9828                           
  9829                           ;clcd.c: 23:     RE1 = 1;
  9830     08D4  1489               	bsf	9,1	;volatile
  9831     08D5                     l3673:
  9832                           
  9833                           ;clcd.c: 24:     _delay((unsigned long)((100)*(20000000/4000000.0)));
  9834     08D5  30A6               	movlw	166
  9835     08D6  00F3               	movwf	??_clcd_write
  9836     08D7                     u4437:
  9837     08D7  0BF3               	decfsz	??_clcd_write,f
  9838     08D8  28D7               	goto	u4437
  9839     08D9  0000               	nop
  9840     08DA                     l3675:
  9841                           
  9842                           ;clcd.c: 25:     RE1 = 0;
  9843     08DA  1283               	bcf	3,5	;RP0=0, select bank0
  9844     08DB  1303               	bcf	3,6	;RP1=0, select bank0
  9845     08DC  1089               	bcf	9,1	;volatile
  9846     08DD                     l3677:
  9847                           
  9848                           ;clcd.c: 27:     _delay((unsigned long)((4100)*(20000000/4000000.0)));
  9849     08DD  301B               	movlw	27
  9850     08DE  00F4               	movwf	??_clcd_write+1
  9851     08DF  309E               	movlw	158
  9852     08E0  00F3               	movwf	??_clcd_write
  9853     08E1                     u4447:
  9854     08E1  0BF3               	decfsz	??_clcd_write,f
  9855     08E2  28E1               	goto	u4447
  9856     08E3  0BF4               	decfsz	??_clcd_write+1,f
  9857     08E4  28E1               	goto	u4447
  9858     08E5  0000               	nop
  9859     08E6                     l180:
  9860     08E6  0008               	return
  9861     08E7                     __end_of_clcd_write:
  9862                           
  9863                           	psect	text52
  9864     0997                     __ptext52:	
  9865 ;; *************** function ___lwdiv *****************
  9866 ;; Defined at:
  9867 ;;		line 5 in file "C:\Program Files\Microchip\xc8\v2.45\pic\sources\c99\common\lwdiv.c"
  9868 ;; Parameters:    Size  Location     Type
  9869 ;;  divisor         2    6[COMMON] unsigned int 
  9870 ;;  dividend        2    8[COMMON] unsigned int 
  9871 ;; Auto vars:     Size  Location     Type
  9872 ;;  quotient        2    0[BANK0 ] unsigned int 
  9873 ;;  counter         1    2[BANK0 ] unsigned char 
  9874 ;; Return value:  Size  Location     Type
  9875 ;;                  2    6[COMMON] unsigned int 
  9876 ;; Registers used:
  9877 ;;		wreg, status,2, status,0, btemp+1
  9878 ;; Tracked objects:
  9879 ;;		On entry : 0/0
  9880 ;;		On exit  : 0/0
  9881 ;;		Unchanged: 0/0
  9882 ;; Data sizes:     COMMON   BANK0   BANK1   BANK3   BANK2
  9883 ;;      Params:         4       0       0       0       0
  9884 ;;      Locals:         0       3       0       0       0
  9885 ;;      Temps:          0       0       0       0       0
  9886 ;;      Totals:         4       3       0       0       0
  9887 ;;Total ram usage:        7 bytes
  9888 ;; Hardware stack levels used: 1
  9889 ;; Hardware stack levels required when called: 1
  9890 ;; This function calls:
  9891 ;;		Nothing
  9892 ;; This function is called by:
  9893 ;;		_main
  9894 ;; This function uses a non-reentrant model
  9895 ;;
  9896                           
  9897     0997                     ___lwdiv:	
  9898                           ;psect for function ___lwdiv
  9899                           
  9900     0997                     l3303:	
  9901                           ;incstack = 0
  9902                           ; Regs used in ___lwdiv: [wreg+status,2+status,0+btemp+1]
  9903                           
  9904     0997  1283               	bcf	3,5	;RP0=0, select bank0
  9905     0998  1303               	bcf	3,6	;RP1=0, select bank0
  9906     0999  01A0               	clrf	___lwdiv@quotient
  9907     099A  01A1               	clrf	___lwdiv@quotient+1
  9908     099B                     l3305:
  9909     099B  0876               	movf	___lwdiv@divisor,w
  9910     099C  0477               	iorwf	___lwdiv@divisor+1,w
  9911     099D  1903               	btfsc	3,2
  9912     099E  29A0               	goto	u2661
  9913     099F  29A1               	goto	u2660
  9914     09A0                     u2661:
  9915     09A0  29D8               	goto	l3325
  9916     09A1                     u2660:
  9917     09A1                     l3307:
  9918     09A1  01A2               	clrf	___lwdiv@counter
  9919     09A2  0AA2               	incf	___lwdiv@counter,f
  9920     09A3  29AF               	goto	l3313
  9921     09A4                     l3309:
  9922     09A4  3001               	movlw	1
  9923     09A5                     u2675:
  9924     09A5  1003               	clrc
  9925     09A6  0DF6               	rlf	___lwdiv@divisor,f
  9926     09A7  0DF7               	rlf	___lwdiv@divisor+1,f
  9927     09A8  3EFF               	addlw	-1
  9928     09A9  1D03               	skipz
  9929     09AA  29A5               	goto	u2675
  9930     09AB                     l3311:
  9931     09AB  3001               	movlw	1
  9932     09AC  00FF               	movwf	btemp+1
  9933     09AD  087F               	movf	btemp+1,w
  9934     09AE  07A2               	addwf	___lwdiv@counter,f
  9935     09AF                     l3313:
  9936     09AF  1FF7               	btfss	___lwdiv@divisor+1,7
  9937     09B0  29B2               	goto	u2681
  9938     09B1  29B3               	goto	u2680
  9939     09B2                     u2681:
  9940     09B2  29A4               	goto	l3309
  9941     09B3                     u2680:
  9942     09B3                     l3315:
  9943     09B3  3001               	movlw	1
  9944     09B4                     u2695:
  9945     09B4  1003               	clrc
  9946     09B5  0DA0               	rlf	___lwdiv@quotient,f
  9947     09B6  0DA1               	rlf	___lwdiv@quotient+1,f
  9948     09B7  3EFF               	addlw	-1
  9949     09B8  1D03               	skipz
  9950     09B9  29B4               	goto	u2695
  9951     09BA  0877               	movf	___lwdiv@divisor+1,w
  9952     09BB  0279               	subwf	___lwdiv@dividend+1,w
  9953     09BC  1D03               	skipz
  9954     09BD  29C0               	goto	u2705
  9955     09BE  0876               	movf	___lwdiv@divisor,w
  9956     09BF  0278               	subwf	___lwdiv@dividend,w
  9957     09C0                     u2705:
  9958     09C0  1C03               	skipc
  9959     09C1  29C3               	goto	u2701
  9960     09C2  29C4               	goto	u2700
  9961     09C3                     u2701:
  9962     09C3  29CB               	goto	l3321
  9963     09C4                     u2700:
  9964     09C4                     l3317:
  9965     09C4  0876               	movf	___lwdiv@divisor,w
  9966     09C5  02F8               	subwf	___lwdiv@dividend,f
  9967     09C6  0877               	movf	___lwdiv@divisor+1,w
  9968     09C7  1C03               	skipc
  9969     09C8  03F9               	decf	___lwdiv@dividend+1,f
  9970     09C9  02F9               	subwf	___lwdiv@dividend+1,f
  9971     09CA                     l3319:
  9972     09CA  1420               	bsf	___lwdiv@quotient,0
  9973     09CB                     l3321:
  9974     09CB  3001               	movlw	1
  9975     09CC                     u2715:
  9976     09CC  1003               	clrc
  9977     09CD  0CF7               	rrf	___lwdiv@divisor+1,f
  9978     09CE  0CF6               	rrf	___lwdiv@divisor,f
  9979     09CF  3EFF               	addlw	-1
  9980     09D0  1D03               	skipz
  9981     09D1  29CC               	goto	u2715
  9982     09D2                     l3323:
  9983     09D2  3001               	movlw	1
  9984     09D3  02A2               	subwf	___lwdiv@counter,f
  9985     09D4  1D03               	btfss	3,2
  9986     09D5  29D7               	goto	u2721
  9987     09D6  29D8               	goto	u2720
  9988     09D7                     u2721:
  9989     09D7  29B3               	goto	l3315
  9990     09D8                     u2720:
  9991     09D8                     l3325:
  9992     09D8  0821               	movf	___lwdiv@quotient+1,w
  9993     09D9  00F7               	movwf	?___lwdiv+1
  9994     09DA  0820               	movf	___lwdiv@quotient,w
  9995     09DB  00F6               	movwf	?___lwdiv
  9996     09DC                     l946:
  9997     09DC  0008               	return
  9998     09DD                     __end_of___lwdiv:
  9999                           
 10000                           	psect	text53
 10001     0847                     __ptext53:	
 10002 ;; *************** function _isr *****************
 10003 ;; Defined at:
 10004 ;;		line 13 in file "isr.c"
 10005 ;; Parameters:    Size  Location     Type
 10006 ;;		None
 10007 ;; Auto vars:     Size  Location     Type
 10008 ;;		None
 10009 ;; Return value:  Size  Location     Type
 10010 ;;                  1    wreg      void 
 10011 ;; Registers used:
 10012 ;;		wreg, status,2, status,0
 10013 ;; Tracked objects:
 10014 ;;		On entry : 0/0
 10015 ;;		On exit  : 0/0
 10016 ;;		Unchanged: 0/0
 10017 ;; Data sizes:     COMMON   BANK0   BANK1   BANK3   BANK2
 10018 ;;      Params:         0       0       0       0       0
 10019 ;;      Locals:         0       0       0       0       0
 10020 ;;      Temps:          2       0       0       0       0
 10021 ;;      Totals:         2       0       0       0       0
 10022 ;;Total ram usage:        2 bytes
 10023 ;; Hardware stack levels used: 1
 10024 ;; This function calls:
 10025 ;;		Nothing
 10026 ;; This function is called by:
 10027 ;;		Interrupt level 1
 10028 ;; This function uses a non-reentrant model
 10029 ;;
 10030                           
 10031     0847                     _isr:	
 10032                           ;psect for function _isr
 10033                           
 10034     0847                     i1l3543:
 10035                           
 10036                           ;isr.c: 15:     static unsigned int count = 0;;isr.c: 17:     if (TMR2IF == 1)
 10037     0847  1283               	bcf	3,5	;RP0=0, select bank0
 10038     0848  1303               	bcf	3,6	;RP1=0, select bank0
 10039     0849  1C8C               	btfss	12,1	;volatile
 10040     084A  284C               	goto	u298_21
 10041     084B  284D               	goto	u298_20
 10042     084C                     u298_21:
 10043     084C  2875               	goto	i1l424
 10044     084D                     u298_20:
 10045     084D                     i1l3545:
 10046                           
 10047                           ;isr.c: 18:     {;isr.c: 19:         TMR2 = TMR2+8;
 10048     084D  0811               	movf	17,w	;volatile
 10049     084E  3E08               	addlw	8
 10050     084F  0091               	movwf	17	;volatile
 10051                           
 10052                           ;isr.c: 20:         if (++count == 1250)
 10053     0850  3001               	movlw	1
 10054     0851  07D6               	addwf	isr@count,f
 10055     0852  1803               	skipnc
 10056     0853  0AD7               	incf	isr@count+1,f
 10057     0854  3000               	movlw	0
 10058     0855  07D7               	addwf	isr@count+1,f
 10059     0856  30E2               	movlw	226
 10060     0857  0656               	xorwf	isr@count,w
 10061     0858  3004               	movlw	4
 10062     0859  1903               	skipnz
 10063     085A  0657               	xorwf	isr@count+1,w
 10064     085B  1D03               	btfss	3,2
 10065     085C  285E               	goto	u299_21
 10066     085D  285F               	goto	u299_20
 10067     085E                     u299_21:
 10068     085E  2874               	goto	i1l3557
 10069     085F                     u299_20:
 10070     085F                     i1l3547:
 10071                           
 10072                           ;isr.c: 21:         {;isr.c: 22:             count = 0;
 10073     085F  01D6               	clrf	isr@count
 10074     0860  01D7               	clrf	isr@count+1
 10075     0861                     i1l3549:
 10076                           
 10077                           ;isr.c: 23:             if(sec > 0)
 10078     0861  085C               	movf	_sec,w
 10079     0862  1903               	btfsc	3,2
 10080     0863  2865               	goto	u300_21
 10081     0864  2866               	goto	u300_20
 10082     0865                     u300_21:
 10083     0865  2868               	goto	i1l422
 10084     0866                     u300_20:
 10085     0866                     i1l3551:
 10086                           
 10087                           ;isr.c: 24:                 sec-- ;
 10088     0866  3001               	movlw	1
 10089     0867  02DC               	subwf	_sec,f
 10090     0868                     i1l422:
 10091                           
 10092                           ;isr.c: 25:             if(sec == 0 && return_time >0)
 10093     0868  085C               	movf	_sec,w
 10094     0869  1D03               	btfss	3,2
 10095     086A  286C               	goto	u301_21
 10096     086B  286D               	goto	u301_20
 10097     086C                     u301_21:
 10098     086C  2874               	goto	i1l3557
 10099     086D                     u301_20:
 10100     086D                     i1l3553:
 10101     086D  085B               	movf	_return_time,w
 10102     086E  1903               	btfsc	3,2
 10103     086F  2871               	goto	u302_21
 10104     0870  2872               	goto	u302_20
 10105     0871                     u302_21:
 10106     0871  2874               	goto	i1l3557
 10107     0872                     u302_20:
 10108     0872                     i1l3555:
 10109                           
 10110                           ;isr.c: 26:                 return_time--;
 10111     0872  3001               	movlw	1
 10112     0873  02DB               	subwf	_return_time,f
 10113     0874                     i1l3557:
 10114                           
 10115                           ;isr.c: 29:         TMR2IF = 0;
 10116     0874  108C               	bcf	12,1	;volatile
 10117     0875                     i1l424:
 10118     0875  0871               	movf	??_isr+1,w
 10119     0876  008A               	movwf	10
 10120     0877  0E70               	swapf	??_isr,w
 10121     0878  0083               	movwf	3
 10122     0879  0EFE               	swapf	btemp,f
 10123     087A  0E7E               	swapf	btemp,w
 10124     087B  0009               	retfie
 10125     087C                     __end_of_isr:
 10126     007E                     btemp	set	126	;btemp
 10127     007E                     wtemp0	set	126
 10128                           
 10129                           	psect	intentry
 10130     0004                     __pintentry:	
 10131                           ;incstack = 0
 10132                           ; Regs used in _isr: [wreg+status,2+status,0]
 10133                           
 10134     0004                     interrupt_function:
 10135     007E                     saved_w	set	btemp
 10136     0004  00FE               	movwf	btemp
 10137     0005  0E03               	swapf	3,w
 10138     0006  00F0               	movwf	??_isr
 10139     0007  080A               	movf	10,w
 10140     0008  00F1               	movwf	??_isr+1
 10141     0009  120A  158A  2847   	ljmp	_isr
 10142                           
 10143                           	psect	idloc
 10144                           
 10145                           ;Config register IDLOC0 @ 0x2000
 10146                           ;	unspecified, using default values
 10147     2000                     	org	8192
 10148     2000  3FFF               	dw	16383
 10149                           
 10150                           ;Config register IDLOC1 @ 0x2001
 10151                           ;	unspecified, using default values
 10152     2001                     	org	8193
 10153     2001  3FFF               	dw	16383
 10154                           
 10155                           ;Config register IDLOC2 @ 0x2002
 10156                           ;	unspecified, using default values
 10157     2002                     	org	8194
 10158     2002  3FFF               	dw	16383
 10159                           
 10160                           ;Config register IDLOC3 @ 0x2003
 10161                           ;	unspecified, using default values
 10162     2003                     	org	8195
 10163     2003  3FFF               	dw	16383
 10164                           
 10165                           	psect	config
 10166                           
 10167                           ;Config register CONFIG @ 0x2007
 10168                           ;	Oscillator Selection bits
 10169                           ;	FOSC = 0x3, unprogrammed default
 10170                           ;	Watchdog Timer Enable bit
 10171                           ;	WDTE = OFF, WDT disabled
 10172                           ;	Power-up Timer Enable bit
 10173                           ;	PWRTE = 0x1, unprogrammed default
 10174                           ;	Brown-out Reset Enable bit
 10175                           ;	BOREN = 0x1, unprogrammed default
 10176                           ;	Low-Voltage (Single-Supply) In-Circuit Serial Programming Enable bit
 10177                           ;	LVP = 0x1, unprogrammed default
 10178                           ;	Data EEPROM Memory Code Protection bit
 10179                           ;	CPD = 0x1, unprogrammed default
 10180                           ;	Flash Program Memory Write Enable bits
 10181                           ;	WRT = 0x3, unprogrammed default
 10182                           ;	In-Circuit Debugger Mode bit
 10183                           ;	DEBUG = 0x1, unprogrammed default
 10184                           ;	Flash Program Memory Code Protection bit
 10185                           ;	CP = 0x1, unprogrammed default
 10186     2007                     	org	8199
 10187     2007  3FFB               	dw	16379

Data Sizes:
    Strings     365
    Constant    0
    Data        32
    BSS         81
    Persistent  0
    Stack       0

Auto Spaces:
    Space          Size  Autos    Used
    COMMON           14     10      12
    BANK0            80     45      80
    BANK1            80      0      76
    BANK3            96      0       0
    BANK2            96      0       0

Pointer List with Targets:

    change_pass@reset	PTR unsigned char  size(2) Largest target is 512
		 -> main@reset(BANK0[1]), RAM(DATA[512]), 

    clcd_print@str	PTR const unsigned char  size(2) Largest target is 17
		 -> fetch_data(BANK1[17]), main@event(BANK0[3]), set_tm(BANK0[9]), STR_10(CODE[17]), 
		 -> STR_11(CODE[17]), STR_12(CODE[17]), STR_13(CODE[17]), STR_14(CODE[15]), 
		 -> STR_15(CODE[17]), STR_16(CODE[17]), STR_17(CODE[15]), STR_18(CODE[16]), 
		 -> STR_19(CODE[11]), STR_20(CODE[14]), STR_21(CODE[9]), STR_22(CODE[10]), 
		 -> STR_23(CODE[13]), STR_24(CODE[12]), STR_25(CODE[9]), STR_26(CODE[4]), 
		 -> STR_27(CODE[4]), STR_28(CODE[13]), STR_29(CODE[11]), STR_30(CODE[9]), 
		 -> STR_32(CODE[16]), STR_33(CODE[16]), STR_34(CODE[10]), STR_35(CODE[14]), 
		 -> STR_9(CODE[17]), time(BANK1[9]), 

    display_dashboard@event	PTR unsigned char  size(1) Largest target is 3
		 -> main@event(BANK0[3]), 

    display_menu@F1279	PTR unsigned char [5] size(2) Largest target is 13
		 -> STR_21(CODE[9]), STR_22(CODE[10]), STR_23(CODE[13]), STR_24(CODE[12]), 
		 -> STR_25(CODE[9]), 

    display_menu@menu	PTR unsigned char [5] size(2) Largest target is 13
		 -> STR_21(CODE[9]), STR_22(CODE[10]), STR_23(CODE[13]), STR_24(CODE[12]), 
		 -> STR_25(CODE[9]), 

    display_menu@reset	PTR unsigned char  size(1) Largest target is 1
		 -> main@reset(BANK0[1]), 

    eeprom_at24C04_str_write@str	PTR unsigned char  size(2) Largest target is 11
		 -> log(BANK1[11]), STR_8(CODE[5]), 

    log_event@event	PTR unsigned char  size(1) Largest target is 3
		 -> main@event(BANK0[3]), 

    login@reset	PTR unsigned char  size(1) Largest target is 1
		 -> main@reset(BANK0[1]), 

    main@F1262	PTR unsigned char [7] size(2) Largest target is 3
		 -> STR_1(CODE[3]), STR_2(CODE[3]), STR_3(CODE[3]), STR_4(CODE[3]), 
		 -> STR_5(CODE[3]), STR_6(CODE[3]), STR_7(CODE[3]), 

    main@gear	PTR unsigned char [7] size(2) Largest target is 3
		 -> STR_1(CODE[3]), STR_2(CODE[3]), STR_3(CODE[3]), STR_4(CODE[3]), 
		 -> STR_5(CODE[3]), STR_6(CODE[3]), STR_7(CODE[3]), 

    puts@s	PTR const unsigned char  size(2) Largest target is 17
		 -> fetch_data(BANK1[17]), STR_31(CODE[3]), 

    set_time@reset	PTR unsigned char  size(1) Largest target is 1
		 -> main@reset(BANK0[1]), 

    sp__strcpy	PTR unsigned char  size(1) Largest target is 3
		 -> main@event(BANK0[3]), 

    strcpy@d	PTR unsigned char  size(1) Largest target is 3
		 -> main@event(BANK0[3]), 

    strcpy@dest	PTR unsigned char  size(1) Largest target is 3
		 -> main@event(BANK0[3]), 

    strcpy@src	PTR const unsigned char  size(2) Largest target is 3
		 -> STR_1(CODE[3]), STR_2(CODE[3]), STR_3(CODE[3]), STR_4(CODE[3]), 
		 -> STR_5(CODE[3]), STR_6(CODE[3]), STR_7(CODE[3]), 

    strncmp@l	PTR const unsigned char  size(1) Largest target is 4
		 -> change_pass@new_pass(BANK1[4]), login@upassword(BANK0[4]), 

    strncmp@r	PTR const unsigned char  size(1) Largest target is 4
		 -> change_pass@re_pass(BANK1[4]), login@spassword(BANK1[4]), 

    view_log@reset	PTR unsigned char  size(2) Largest target is 512
		 -> main@reset(BANK0[1]), RAM(DATA[512]), 


Critical Paths under _main in COMMON

    _main->___lwdiv
    _main->_clear_log
    _main->_display_menu
    _main->_view_log
    _view_log->_clcd_print
    _save_time->_write_ds1307
    _login->___awdiv
    _login_screen->_clcd_print
    _log_event->___awdiv
    _log_event->_log_event_write
    _log_event_write->_eeprom_at24C04_str_write
    _eeprom_at24C04_str_write->_eeprom_at24C04_byte_write
    _init_uart->___lldiv
    _init_i2c->___lldiv
    _init_ds1307->_read_ds1307
    _write_ds1307->_i2c_write
    _init_clcd->_init_display_controller
    _init_display_controller->_clcd_write
    _download_log->_clcd_print
    _puts->_putchar
    _fetch_data_from_memory->_eeprom_at24C04_read
    _eeprom_at24C04_read->_i2c_read
    _display_menu->_clcd_print
    _display_dashboard->___awdiv
    _get_time->_read_ds1307
    _read_ds1307->_i2c_read
    _clear_log->_clear_display
    _eeprom_at24C04_byte_write->_i2c_write
    _cursor_on->_clcd_write
    _cursor_off->_clcd_write
    _clear_display->_clcd_write
    _clcd_putch->___awdiv
    _clcd_print->_clcd_write
    ___lwdiv->_read_adc

Critical Paths under _isr in COMMON

    None.

Critical Paths under _main in BANK0

    _main->_display_menu
    _set_time->_clcd_putch
    _login->_clcd_putch
    _init->_init_i2c
    _init->_init_uart
    _init_uart->___lldiv
    _init_i2c->___lldiv
    _display_dashboard->_clcd_putch
    _change_pass->_clcd_putch

Critical Paths under _isr in BANK0

    None.

Critical Paths under _main in BANK1

    None.

Critical Paths under _isr in BANK1

    None.

Critical Paths under _main in BANK3

    None.

Critical Paths under _isr in BANK3

    None.

Critical Paths under _main in BANK2

    None.

Critical Paths under _isr in BANK2

    None.

Call Graph Tables:

 ---------------------------------------------------------------------------------
 (Depth) Function   	        Calls       Base Space   Used Autos Params    Refs
 ---------------------------------------------------------------------------------
 (0) _main                                                30    30      0  121699
                                             15 BANK0     30    30      0
                            ___lwdiv
                        _change_pass
                         _clcd_print
                      _clear_display
                          _clear_log
                  _display_dashboard
                       _display_menu
                       _download_log
           _eeprom_at24C04_str_write
                               _init
                          _log_event
                              _login
                       _login_screen
                           _read_adc
                _read_digital_keypad
                          _save_time
                           _set_time
                             _strcpy
                           _view_log
 ---------------------------------------------------------------------------------
 (1) _view_log                                             6     4      2   10396
                                              9 COMMON     1     1      0
                                              0 BANK0      5     3      2
                            ___awmod
                         _clcd_print
                      _clear_display
             _fetch_data_from_memory
 ---------------------------------------------------------------------------------
 (2) _strcpy                                               6     4      2     400
                                              2 COMMON     6     4      2
 ---------------------------------------------------------------------------------
 (1) _set_time                                             6     5      1   10551
                                              2 BANK0      6     5      1
                            ___lwmod
                         _clcd_print
                         _clcd_putch
 ---------------------------------------------------------------------------------
 (2) ___lwmod                                              5     1      4    1071
                                              2 COMMON     5     1      4
 ---------------------------------------------------------------------------------
 (1) _save_time                                            3     3      0     657
                                              5 COMMON     3     3      0
                       _write_ds1307
 ---------------------------------------------------------------------------------
 (1) _read_digital_keypad                                  2     2      0      22
                                              2 COMMON     2     2      0
 ---------------------------------------------------------------------------------
 (1) _read_adc                                             4     2      2      23
                                              2 COMMON     4     2      2
 ---------------------------------------------------------------------------------
 (1) _login                                                7     6      1   25050
                                              2 BANK0      7     6      1
                            ___awdiv
                            ___awmod
                         _clcd_print
                         _clcd_putch
                      _clear_display
                         _cursor_off
                _eeprom_at24C04_read
                       _login_screen
                            _strncmp
 ---------------------------------------------------------------------------------
 (1) _login_screen                                         0     0      0    9676
                         _clcd_print
                      _clear_display
                          _cursor_on
 ---------------------------------------------------------------------------------
 (1) _log_event                                            4     3      1    4015
                                              0 BANK0      4     3      1
                            ___awdiv
                            ___awmod
                           _get_time
                    _log_event_write
 ---------------------------------------------------------------------------------
 (2) _log_event_write                                      1     1      0    1088
                                              9 COMMON     1     1      0
                             ___bmul
           _eeprom_at24C04_str_write
 ---------------------------------------------------------------------------------
 (3) _eeprom_at24C04_str_write                             4     2      2     735
                                              5 COMMON     4     2      2
          _eeprom_at24C04_byte_write
 ---------------------------------------------------------------------------------
 (1) _init                                                 0     0      0    3569
                           _init_adc
                          _init_clcd
                _init_digital_keypad
                        _init_ds1307
                           _init_i2c
                        _init_timer2
                          _init_uart
 ---------------------------------------------------------------------------------
 (2) _init_uart                                            8     4      4     722
                                              6 BANK0      8     4      4
                            ___lldiv
 ---------------------------------------------------------------------------------
 (2) _init_timer2                                          0     0      0       0
 ---------------------------------------------------------------------------------
 (2) _init_i2c                                             8     4      4     722
                                              6 BANK0      8     4      4
                            ___lldiv
 ---------------------------------------------------------------------------------
 (3) ___lldiv                                             14     6      8     601
                                              2 COMMON     8     0      8
                                              0 BANK0      6     6      0
 ---------------------------------------------------------------------------------
 (2) _init_ds1307                                          1     1      0     682
                                              6 COMMON     1     1      0
                        _read_ds1307
                       _write_ds1307
 ---------------------------------------------------------------------------------
 (2) _write_ds1307                                         2     1      1     453
                                              3 COMMON     2     1      1
                          _i2c_start
                           _i2c_stop
                          _i2c_write
 ---------------------------------------------------------------------------------
 (2) _init_digital_keypad                                  0     0      0       0
 ---------------------------------------------------------------------------------
 (2) _init_clcd                                            0     0      0    1443
            _init_display_controller
 ---------------------------------------------------------------------------------
 (3) _init_display_controller                              2     2      0    1443
                                              6 COMMON     2     2      0
                         _clcd_write
 ---------------------------------------------------------------------------------
 (2) _init_adc                                             0     0      0       0
 ---------------------------------------------------------------------------------
 (1) _download_log                                         5     5      0    9341
                                              0 BANK0      5     5      0
                         _clcd_print
                      _clear_display
             _fetch_data_from_memory
                               _puts
 ---------------------------------------------------------------------------------
 (2) _puts                                                 2     0      2     219
                                              3 COMMON     2     0      2
                            _putchar
 ---------------------------------------------------------------------------------
 (3) _putchar                                              1     1      0      22
                                              2 COMMON     1     1      0
 ---------------------------------------------------------------------------------
 (2) _fetch_data_from_memory                               2     2      0     852
                                              6 COMMON     2     2      0
                             ___bmul
                _eeprom_at24C04_read
 ---------------------------------------------------------------------------------
 (3) _eeprom_at24C04_read                                  2     2      0     161
                                              4 COMMON     2     2      0
                           _i2c_read
                      _i2c_rep_start
                          _i2c_start
                           _i2c_stop
                          _i2c_write
 ---------------------------------------------------------------------------------
 (3) ___bmul                                               3     2      1     316
                                              2 COMMON     3     2      1
 ---------------------------------------------------------------------------------
 (1) _display_menu                                        16    15      1    8558
                                              9 COMMON     1     0      1
                                              0 BANK0     15    15      0
                         _clcd_print
                      _clear_display
 ---------------------------------------------------------------------------------
 (1) _display_dashboard                                    4     3      1   11682
                                              2 BANK0      4     3      1
                            ___awdiv
                            ___awmod
                         _clcd_print
                         _clcd_putch
                           _get_time
 ---------------------------------------------------------------------------------
 (2) _get_time                                             1     1      0     161
                                              6 COMMON     1     1      0
                        _read_ds1307
 ---------------------------------------------------------------------------------
 (3) _read_ds1307                                          2     2      0     161
                                              4 COMMON     2     2      0
                           _i2c_read
                      _i2c_rep_start
                          _i2c_start
                           _i2c_stop
                          _i2c_write
 ---------------------------------------------------------------------------------
 (4) _i2c_rep_start                                        0     0      0       0
                          _i2c_start
                           _i2c_stop
 ---------------------------------------------------------------------------------
 (4) _i2c_read                                             2     2      0      65
                                              2 COMMON     2     2      0
                  _i2c_wait_for_idle
 ---------------------------------------------------------------------------------
 (2) ___awmod                                              6     2      4    1153
                                              2 COMMON     6     2      4
 ---------------------------------------------------------------------------------
 (2) ___awdiv                                              8     4      4     985
                                              2 COMMON     8     4      4
 ---------------------------------------------------------------------------------
 (1) _clear_log                                            2     2      0    1905
                                              8 COMMON     2     2      0
                      _clear_display
          _eeprom_at24C04_byte_write
 ---------------------------------------------------------------------------------
 (1) _change_pass                                         10     8      2   14916
                                              2 BANK0     10     8      2
                         _clcd_print
                         _clcd_putch
                      _clear_display
                         _cursor_off
                          _cursor_on
          _eeprom_at24C04_byte_write
                            _strncmp
 ---------------------------------------------------------------------------------
 (2) _strncmp                                              6     3      3     549
                                              2 COMMON     6     3      3
 ---------------------------------------------------------------------------------
 (4) _eeprom_at24C04_byte_write                            2     1      1     363
                                              3 COMMON     2     1      1
                          _i2c_start
                           _i2c_stop
                          _i2c_write
 ---------------------------------------------------------------------------------
 (4) _i2c_write                                            1     1      0      31
                                              2 COMMON     1     1      0
                  _i2c_wait_for_idle
 ---------------------------------------------------------------------------------
 (4) _i2c_stop                                             0     0      0       0
                  _i2c_wait_for_idle
 ---------------------------------------------------------------------------------
 (4) _i2c_start                                            0     0      0       0
                  _i2c_wait_for_idle
 ---------------------------------------------------------------------------------
 (5) _i2c_wait_for_idle                                    0     0      0       0
 ---------------------------------------------------------------------------------
 (2) _cursor_on                                            2     2      0    1474
                                              6 COMMON     2     2      0
                         _clcd_write
 ---------------------------------------------------------------------------------
 (2) _cursor_off                                           1     1      0    1443
                                              6 COMMON     1     1      0
                         _clcd_write
 ---------------------------------------------------------------------------------
 (2) _clear_display                                        2     2      0    1443
                                              6 COMMON     2     2      0
                         _clcd_write
 ---------------------------------------------------------------------------------
 (2) _clcd_putch                                           2     1      1    2405
                                              0 BANK0      2     1      1
                            ___awdiv (ARG)
                            ___awmod (ARG)
                         _clcd_write
 ---------------------------------------------------------------------------------
 (2) _clcd_print                                           3     0      3    6759
                                              6 COMMON     3     0      3
                         _clcd_write
 ---------------------------------------------------------------------------------
 (3) _clcd_write                                           4     3      1    1443
                                              2 COMMON     4     3      1
 ---------------------------------------------------------------------------------
 (1) ___lwdiv                                              7     3      4     314
                                              6 COMMON     4     0      4
                                              0 BANK0      3     3      0
                           _read_adc (ARG)
 ---------------------------------------------------------------------------------
 Estimated maximum stack depth 5
 ---------------------------------------------------------------------------------
 (Depth) Function   	        Calls       Base Space   Used Autos Params    Refs
 ---------------------------------------------------------------------------------
 (7) _isr                                                  2     2      0       0
                                              0 COMMON     2     2      0
 ---------------------------------------------------------------------------------
 Estimated maximum stack depth 7
 ---------------------------------------------------------------------------------

 Call Graph Graphs:

 _main (ROOT)
   ___lwdiv
     _read_adc (ARG)
   _change_pass
     _clcd_print
       _clcd_write
     _clcd_putch
       ___awdiv (ARG)
       ___awmod (ARG)
       _clcd_write (ARG)
     _clear_display
       _clcd_write
     _cursor_off
       _clcd_write
     _cursor_on
       _clcd_write
     _eeprom_at24C04_byte_write
       _i2c_start
         _i2c_wait_for_idle
       _i2c_stop
         _i2c_wait_for_idle
       _i2c_write
         _i2c_wait_for_idle
     _strncmp
   _clcd_print
   _clear_display
   _clear_log
     _clear_display
     _eeprom_at24C04_byte_write
   _display_dashboard
     ___awdiv
     ___awmod
     _clcd_print
     _clcd_putch
     _get_time
       _read_ds1307
         _i2c_read
           _i2c_wait_for_idle
         _i2c_rep_start
           _i2c_start
           _i2c_stop
         _i2c_start
         _i2c_stop
         _i2c_write
   _display_menu
     _clcd_print
     _clear_display
   _download_log
     _clcd_print
     _clear_display
     _fetch_data_from_memory
       ___bmul
       _eeprom_at24C04_read
         _i2c_read
         _i2c_rep_start
         _i2c_start
         _i2c_stop
         _i2c_write
     _puts
       _putchar
   _eeprom_at24C04_str_write
     _eeprom_at24C04_byte_write
   _init
     _init_adc
     _init_clcd
       _init_display_controller
         _clcd_write
     _init_digital_keypad
     _init_ds1307
       _read_ds1307
       _write_ds1307
         _i2c_start
         _i2c_stop
         _i2c_write
     _init_i2c
       ___lldiv
     _init_timer2
     _init_uart
       ___lldiv
   _log_event
     ___awdiv
     ___awmod
     _get_time
     _log_event_write
       ___bmul
       _eeprom_at24C04_str_write
   _login
     ___awdiv
     ___awmod
     _clcd_print
     _clcd_putch
     _clear_display
     _cursor_off
     _eeprom_at24C04_read
     _login_screen
       _clcd_print
       _clear_display
       _cursor_on
     _strncmp
   _login_screen
   _read_adc
   _read_digital_keypad
   _save_time
     _write_ds1307
   _set_time
     ___lwmod
     _clcd_print
     _clcd_putch
   _strcpy
   _view_log
     ___awmod
     _clcd_print
     _clear_display
     _fetch_data_from_memory

 _isr (ROOT)

 Address spaces:
Name               Size   Autos  Total    Cost      Usage
BANK3               60      0       0       9        0.0%
BITBANK3            60      0       0       8        0.0%
SFR3                 0      0       0       4        0.0%
BITSFR3              0      0       0       4        0.0%
BANK2               60      0       0      11        0.0%
BITBANK2            60      0       0      10        0.0%
SFR2                 0      0       0       5        0.0%
BITSFR2              0      0       0       5        0.0%
BANK1               50      0      4C       7       95.0%
BITBANK1            50      0       0       6        0.0%
SFR1                 0      0       0       2        0.0%
BITSFR1              0      0       0       2        0.0%
BANK0               50     2D      50       5      100.0%
BITBANK0            50      0       0       4        0.0%
SFR0                 0      0       0       1        0.0%
BITSFR0              0      0       0       1        0.0%
COMMON               E      A       C       1       85.7%
BITCOMMON            E      0       0       0        0.0%
CODE                 0      0       0       0        0.0%
DATA                 0      0      A8      12        0.0%
ABS                  0      0      A8       3        0.0%
NULL                 0      0       0       0        0.0%
STACK                0      0       0       2        0.0%
EEDATA             100      0       0       0        0.0%


Microchip Technology PIC Macro Assembler V2.45 build 20230818022343 
Symbol Table                                                                                   Tue Nov 21 09:18:27 2023

                                pc 0002                     ___bmul@product 0073  
                   clcd_print@addr 0078                                 l63 0920  
                               l96 027F                                 _GO 00FA  
                     ___awdiv@sign 0077                                 fsr 0004  
                              l201 1634                                l204 158B  
                              l132 1531                                l221 15DB  
                              l117 0292                                l224 174A  
                              l160 15BA                                l330 161A  
                              l138 171F                                l227 168B  
                              l163 15C8                                l180 08E6  
                              l316 0C6A                                l324 0996  
                              l157 1538                                l405 15A5  
                              l262 1598                                l271 1552  
                              l319 0B39                                l183 0B9C  
                              l327 0AD7                                l256 0846  
                              l265 1549                                l521 0391  
                              l274 16A7                                l370 07A6  
                              l186 157E                                l346 06D7  
                              l195 17D0                                l259 158C  
                              l275 16AA                                l443 156E  
                              l451 16F5                                l276 16AC  
                              l268 1568                                l524 0D51  
                              l444 1572                                l189 1603  
                              l445 1573                                l533 03FC  
                              l198 15B6                                l702 0CD2  
                              l279 155D                                l383 1775  
                              l439 08B0                                l392 17FF  
                              l529 17A1                                l386 166D  
                              l490 0A2B                                l580 0FFF  
                              l487 0EA2                                l832 07FF  
                              l819 0C03                                l692 0814  
                              l946 09DC                                l956 095A  
                              _GIE 005F                                _RE1 0049  
                              _RE2 004A                      ?_display_menu 0079  
                              _PR2 0092                                _PEN 048A  
                              _SEN 0488                                _log 00B1  
                              _sec 005C                                _isr 0847  
                   clcd_putch@addr 0020                                _pos 006E  
                              fsr0 0004                     clcd_putch@data 0021  
                              indf 0000                       ___awmod@sign 0077  
        ?_eeprom_at24C04_str_write 0075                               l1132 0A7B  
                             l1128 16CF                               l4001 090A  
            ??_read_digital_keypad 0072                               l4003 090F  
                             l4011 0A84                               l4005 091E  
                             l4021 0A90                               l4013 0A88  
                             l4101 05A2                               l3311 09AB  
                             l3303 0997                               l4007 091F  
                             l4031 0AD1                               l4023 0A92  
                             l4015 0A8A                               l4111 05BC  
                             l4103 05A9                               l3321 09CB  
                             l3313 09AF                               l3305 099B  
                             l4201 0723                               l2513 156A  
                             l4033 0AD2                               l4025 0A9B  
                             l4017 0A8C                               l4009 0A7F  
                             l4121 05DC                               l4105 05AF  
                             l4041 09F7                               l3323 09D2  
                             l3315 09B3                               l3307 09A1  
                             l4051 1776                               l4211 076A  
                             l4203 0728                               l4027 0AA3  
                             l4019 0A8E                               l4107 05B5  
                             l4115 05C6                               l4043 09F8  
                             l4035 09DD                               l3317 09C4  
                             l3309 09A4                               l3325 09D8  
                             l4301 0EED                               l4061 1787  
                             l4213 0770                               l4029 0ABA  
                             l4141 061A                               l4133 05E6  
                             l4117 05CB                               l4125 05DE  
                             l4109 05B7                               l4045 0A11  
                             l4037 09DE                               l4221 0321  
                             l3319 09CA                               l4303 0EF3  
                             l4311 0F11                               l4063 1794  
                             l4071 0AE6                               l4207 072B  
                             l4151 062F                               l4143 0624  
                             l4135 05F3                               l4127 05E4  
                             l4119 05D5                               l4047 0A12  
                             l4039 09EF                               l4231 0356  
                             l4223 0323                               l4215 030B  
                             l2641 0A3B                               l4321 0F35  
                             l4313 0F17                               l4305 0EFA  
                             l4065 1796                               l4057 1778  
                             l4073 0AEB                               l4209 0733  
                             l4161 0688                               l4153 0639  
                             l4137 05FB                               l4081 0570  
                             l4049 0A23                               l2801 0949  
                             l4401 0D9E                               l4241 0379  
                             l4233 035B                               l4225 0329  
                             l4217 0318                               l2651 0A54  
                             l4331 0F53                               l4315 0F1D  
                             l4323 0F3B                               l4307 0F01  
                             l4067 179C                               l4059 1781  
                             l4075 0AF6                               l4251 0398  
                             l4171 06A7                               l4163 068F  
                             l4155 0644                               l4139 0608  
                             l4083 0579                               l4091 0586  
                             l2803 0950                               l4403 0DA6  
                             l4235 0366                               l4227 0336  
                             l4219 031A                               l2653 0A5B  
                             l2645 0A3E                               l4341 0F7B  
                             l4333 0F5E                               l4325 0F41  
                             l4317 0F24                               l4309 0F0B  
                             l4077 0B03                               l4069 0ADB  
                             l4181 06F0                               l2661 16D0  
                             l4253 039D                               l2557 152C  
                             l2581 1599                               l3701 17E8  
                             l4173 06BD                               l4165 0694  
                             l4157 064F                               l4149 0626  
                             l4093 058C                               l4085 057E  
                             l2805 0956                               l4421 0DFC  
                             l4413 0DC4                               l4405 0DAD  
                             l4237 0374                               l4245 037E  
                             l4229 0350                               l4501 00F9  
                             l3711 17AA                               l2655 0A61  
                             l2647 0A46                               l2639 0A2D  
                             l4351 0F9F                               l4343 0F8D  
                             l4335 0F63                               l4327 0F46  
                             l4319 0F2B                               l4079 0B1E  
                             l4183 06F8                               l4191 0705  
                             l2663 16D1                               l4271 03E6  
                             l4255 03A8                               l4263 03C7  
                             l2559 1532                               l2583 159D  
                             l3703 17EC                               l4175 06CB  
                             l4159 0654                               l4167 0697  
                             l4095 0592                               l4087 0580  
                             l4423 0E12                               l4415 0DDA  
                             l4431 0E54                               l4407 0DB4  
                             l4247 0386                               l4239 0379  
                             l4511 0132                               l4503 00FF  
                             l3713 17BA                               l3705 15A6  
                             l3641 1592                               l2657 0A6D  
                             l2649 0A4C                               l4353 0FA7  
                             l4361 0FDD                               l4329 0F4E  
                             l4337 0F69                               l4193 070D  
                             l4185 06FA                               l2665 16DF  
                             l4265 03CC                               l4273 03EE  
                             l4257 03B3                               l4249 0392  
                             l3721 0B49                               l2585 15A1  
                             l4169 069C                               l4177 06D2  
                             l4097 0594                               l4089 0584  
                             l4441 0E99                               l4425 0E28  
                             l4417 0DE0                               l4433 0E6D  
                             l4409 0DBB                               l4601 0248  
                             l4521 0163                               l4513 0151  
                             l4505 0105                               l3715 17C0  
                             l3707 15AD                               l3643 1541  
                             l3651 155D                               l4363 0FE8  
                             l4355 0FB4                               l4339 0F71  
                             l4291 0ED5                               l4283 0EB3  
                             l4275 0EA6                               l4195 0713  
                             l4187 06FB                               l4179 06DB  
                             l2667 16E5                               l4267 03D4  
                             l4259 03C1                               l3731 0B6F  
                             l3723 0B59                               l3803 1574  
                             l3811 0815                               l2587 15A2  
                             l4099 0599                               l4435 0E73  
                             l4427 0E3E                               l4419 0DE6  
                             l4371 0D55                               l4611 0279  
                             l4603 0261                               l4531 017B  
                             l4523 0165                               l4515 0157  
                             l4507 0126                               l4451 0057  
                             l3661 08BC                               l3709 17A2  
                             l3741 161C                               l3645 1546  
                             l4365 0FF6                               l4357 0FCA  
                             l4349 0F91                               l4293 0ED7  
                             l4285 0EBE                               l4277 0EB1  
                             l4197 0717                               l4189 0700  
                             l3901 0D3A                               l4269 03DD  
                             l3733 0B7B                               l3725 0B5E  
                             l3717 0B3A                               l3805 1577  
                             l3821 15D3                               l3813 0818  
                             l2853 15B7                               l2861 16FC  
                             l4437 0E78                               l4381 0D68  
                             l4373 0D5E                               l4621 028C  
                             l4605 0267                               l4541 0193  
                             l4533 0181                               l4525 016A  
                             l4517 015D                               l4509 012C  
                             l4461 005C                               l4453 0057  
                             l3671 08D4                               l3663 08BF  
                             l3743 1623                               l3639 158C  
                             l3655 154A                               l3647 1554  
                             l4367 0FF6                               l4359 0FD8  
                             l4295 0ED8                               l4287 0EC4  
                             l3911 0B9E                               l4199 071D  
                             l3903 0D3C                               l3735 0B80  
                             l3727 0B65                               l3719 0B42  
                             l3807 1578                               l3815 0843  
                             l3823 087C                               l3831 1614  
                             l2855 15BE                               l2871 1711  
                             l2791 092A                               l4439 0E83  
                             l4391 0D86                               l4383 0D6E  
                             l4631 02B8                               l4623 028E  
                             l4607 026D                               l4543 0198  
                             l4535 0186                               l4551 01AE  
                             l4519 0162                               l4527 016F  
                             l4471 0086                               l4463 005D  
                             l4455 0059                               l4447 0040  
                             l3673 08D5                               l3665 08C0  
                             l3833 15F2                               l3745 1628  
                             l3657 154F                               l3649 1559  
                             l4369 0FFA                               l4297 0EDF  
                             l4289 0ED1                               l3921 0BB2  
                             l3913 0BA2                               l3681 168D  
                             l3841 0C1F                               l3761 0801  
                             l3905 0D46                               l3737 0B90  
                             l3729 0B68                               l3809 1579  
                             l3753 166F                               l3817 15C9  
                             l3825 0883                               l2881 171C  
                             l2793 0931                               l4393 0D88  
                             l4385 0D7B                               l4641 02D4  
                             l4633 02C3                               l4609 0273  
                             l4561 01C6                               l4553 01B4  
                             l4545 019D                               l4537 018A  
                             l4529 0175                               l4617 027F  
                             l4481 00B2                               l4473 009C  
                             l4465 0072                               l4457 0059  
                             l4449 0045                               l3675 08DA  
                             l3667 08C5                               l3659 08B2  
                             l3835 157F                               l4299 0EE5  
                             l3931 0BC8                               l3923 0BB6  
                             l3915 0BA7                               l3691 16AB  
                             l3683 1692                               l3747 1721  
                             l3851 0C4F                               l3843 0C2D  
                             l3771 080E                               l3763 0802  
                             l3755 174C                               l3907 0D50  
                             l3739 0B97                               l3819 15D0  
                             l3827 1604                               l2883 171E  
                             l2867 1701                               l2859 16F7  
                             l2795 0935                               l2787 0921  
                             l4395 0D8A                               l4387 0D7F  
                             l4379 0D60                               l4643 02DF  
                             l4635 02C8                               l4627 0296  
                             l4619 0283                               l4571 01E1  
                             l4563 01CA                               l4555 01BA  
                             l4547 01A3                               l4539 018D  
                             l4491 00D7                               l4483 00B6  
                             l4475 00A5                               l4467 0079  
                             l4459 005B                               l3677 08DD  
                             l3669 08C8                               l3837 1586  
                             l3941 0BE8                               l3933 0BCC  
                             l3925 0BB8                               l3917 0BA9  
                             l3909 0B9D                               l3685 169A  
                             l3749 1749                               l3853 0C51  
                             l3845 0C35                               l3773 0813  
                             l3765 0806                               l3757 1774  
                             l3781 0C80                               l3861 0965  
                             l3829 1609                               l2869 170C  
                             l2797 0939                               l2789 0927  
                             l4389 0D81                               l4397 0D8B  
                             l4637 02CD                               l4629 02AF  
                             l4741 0250                               l4581 020A  
                             l4573 01EC                               l4565 01CC  
                             l4493 00DD                               l4485 00B8  
                             l4477 00AB                               l4469 0083  
                             l3695 1651                               l3943 0BEF  
                             l3935 0BD0                               l3927 0BBE  
                             l3919 0BAD                               l3687 169E  
                             l3679 155E                               l3855 0C61  
                             l3847 0C37                               l3839 0C04  
                             l3767 080A                               l3791 0CAC  
                             l3783 0C89                               l3871 098C  
                             l3863 096C                               l2879 1713  
                             l2799 0943                               l4399 0D91  
                             l2887 16AE                               l4639 02D1  
                             l4743 02A7                               l4591 0231  
                             l4583 021A                               l4575 01F8  
                             l4567 01D8                               l4559 01C1  
                             l4495 00E3                               l4647 02E8  
                             l4487 00CD                               l4479 00AD  
                             l3937 0BE1                               l3929 0BC1  
                             l3945 0BF5                               l3961 07B3  
                             l3953 07A7                               l3689 16A3  
                             l3857 0C69                               l3849 0C47  
                             l3769 080C                               l3881 0CEE  
                             l3873 0CD4                               l3793 0CBA  
                             l3785 0C8D                               l3777 0C6B  
                             l3697 17D2                               l3865 096E  
                             l2889 16B0                               l4745 02F0  
                             l4593 0233                               l4585 021C  
                             l4577 01FA                               l4569 01DD  
                             l4497 00E4                               l4489 00D5  
                             l3947 0BFA                               l3939 0BE7  
                             l3971 07CC                               l3963 07B7  
                             l3955 07A8                               l3891 0D10  
                             l3883 0CF8                               l3875 0CDE  
                             l3795 0CBB                               l3787 0C91  
                             l3779 0C7D                               l3699 17D4  
                             l3867 0979                               l3859 095B  
                             l4747 0E59                               l4595 0238  
                             l4587 0221                               l4579 01FF  
                             l4499 00EE                               l3949 0BFF  
                             l3981 07EB                               l3973 07D0  
                             l3965 07BC                               l3957 07AC  
                             l3893 0D1A                               l3885 0CFA  
                             l3877 0CE3                               l3797 0CC4  
                             l3789 0C9A                               l3869 0986  
                             l4597 0243                               l4589 022C  
                             l3975 07D4                               l3967 07C2  
                             l3983 07F1                               l3959 07B1  
                             l3895 0D24                               l3887 0D04  
                             l3879 0CE5                               l3799 0CCA  
                             l3991 08E7                               l3985 07F6  
                             l3977 07DE                               l3969 07C5  
                             l3897 0D26                               l3889 0D0E  
                             l3993 08EC                               _ADFM 04FF  
                             l3987 07FB                               l3979 07E4  
                             l3899 0D30                               l3995 08F1  
                             ?_isr 0070                               l3997 08F6  
                             l3999 0905                               _ADON 00F8  
                             STR_1 0558                               STR_2 055E  
                             STR_3 0561                               STR_4 0564  
                             STR_5 0567                               STR_6 056A  
                             STR_7 055B                               STR_8 054C  
                             STR_9 0466                               _BRGH 04C2  
                             _CREN 00C4                               u2000 0927  
                             u2001 0926                               u2100 171C  
                             u2020 0939                               u2101 171B  
                             u2021 0938                               u2030 0943  
                             u2110 16CF                               u2031 0942  
                             u2015 092B                               u2111 16CE  
                             u2050 0956                               u2051 0955  
                             u2035 093F                               u3100 17D0  
                             u2060 15BE                               u3101 17CF  
                             u2061 15BD                               u2045 094A  
                             u3030 1592                               u3110 0806  
                             u2070 16FC                               u3031 1591  
                             u3111 0805                               u2071 16FB  
                             u3040 1598                               u3120 0813  
                             u3200 0826                               u2080 170C  
                             u4000 0065                               u3041 1597  
                             u3121 0812                               u2081 170B  
                             u3050 08B9                               u3130 0C7D  
                             u3210 0893                               u2090 1711  
                             u4010 00AB                               u3051 08B5  
                             u3131 0C7C                               u2091 1710  
                             u4011 00AA                               u4100 0157  
                             u4020 00CD                               u3205 0821  
                             u4101 0156                               u4021 00CC  
                             u3310 0BD0                               u3150 0C91  
                             u4110 015D                               u4030 00D5  
                             u3311 0BCF                               u3151 0C90  
                             u3215 088E                               u4111 015C  
                             u4031 00D4                               u3064 08BC  
                             u3080 16A3                               u1800 16F5  
                             u4200 01C0                               u4120 0162  
                             u4040 00DD                               u3305 0BC2  
                             u3081 16A2                               u3225 0C22  
                             u1801 16F4                               u3145 0C82  
                             u4201 01BF                               u4121 0161  
                             u4041 00DC                               u4025 00C9  
                             u3330 0BE1                               u3410 07D4  
                             u3170 0CAC                               u3090 17FF  
                             u3250 096C                               u4210 0267  
                             u4130 0175                               u4050 00E3  
                             u3075 08CC                               u3331 0BE0  
                             u3411 07D3                               u3235 0C3C  
                             u3171 0CAB                               u3091 17FE  
                             u3251 096B                               u4211 0266  
                             u4131 0174                               u4051 00E2  
                             u2700 09C4                               u3420 07DE  
                             u1580 1572                               u3260 0986  
                             u3500 0579                               u4220 026D  
                             u4140 017B                               u4060 00FF  
                             u2701 09C3                               u3325 0BD1  
                             u3421 07DD                               u3405 07C6  
                             u3245 0C56                               u1581 1571  
                             u3165 0C93                               u3261 0985  
                             u3501 0578                               u4221 026C  
                             u4141 017A                               u4061 00FE  
                             u1750 0A3B                               u3350 0BF5  
                             u3270 0BA2                               u3190 0CCA  
                             u3510 058C                               u4230 0273  
                             u4150 0181                               u4070 0105  
                             u1751 0A3A                               u3351 0BF4  
                             u3335 0BDD                               u3271 0BA1  
                             u3191 0CC9                               u3175 0CA8  
                             u3511 058B                               u4231 0272  
                             u4151 0180                               u4071 0104  
                             u2720 09D8                               u1760 0A54  
                             u3360 0BFA                               u3280 0BAD  
                             u3440 07F1                               u3600 068F  
                             u3520 0592                               u4240 0279  
                             u4160 0193                               u4080 012C  
                             u2721 09D7                               u2705 09C0  
                             u1761 0A53                               u3361 0BF9  
                             u3345 0BE9                               u3281 0BAC  
                             u3441 07F0                               u3425 07DA  
                             u3185 0CBC                               u3265 0982  
                             u3601 068E                               u3521 0591  
                             u4241 0278                               u4161 0192  
                             u4081 012B                               u1770 0A5B  
                             u3290 0BBE                               u3450 07F6  
                             u3370 07AC                               u3610 06E3  
                             u3530 05AF                               u4170 01A3  
                             u4090 0132                               u2715 09CC  
                             u1771 0A5A                               u3291 0BBD  
                             u3451 07F5                               u3435 07E5  
                             u3371 07AB                               u4307 0B5B  
                             u3531 05AE                               u4171 01A2  
                             u4091 0131                               u2660 09A1  
                             u1780 0A61                               u3380 07B7  
                             u3620 06F8                               u3540 05B5  
                             u3700 0329                               u4180 01B4  
                             u2661 09A0                               u1781 0A60  
                             u3381 07B6                               u3621 06F7  
                             u4317 0B71                               u3541 05B4  
                             u3701 0328                               u4181 01B3  
                             u1790 0A6D                               u3390 07C2  
                             u3630 070D                               u3550 05CB  
                             u3710 0336                               u4190 01BA  
                             u4407 1588                               u1791 0A6C  
                             u3391 07C1                               u3631 070C  
                             u4327 0B7D                               u3551 05CA  
                             u3711 0335                               u4191 01B9  
                             u2680 09B3                               u3800 0F1D  
                             u3640 0713                               u3560 05E4  
                             u3720 0356                               u2681 09B2  
                             u4417 15B1                               u3801 0F1C  
                             u3641 0712                               u4337 0B8B  
                             u3561 05E3                               u3465 09E3  
                             u3721 0355                               u4257 0212  
                             u3810 0F41                               u3490 1794  
                             u3650 0723                               u3730 0398  
                             u3570 0608                               u2675 09A5  
                             u4427 08C2                               u3811 0F40  
                             u3491 1793                               u3651 0722  
                             u3731 0397                               u4347 0B99  
                             u3571 0607                               u3475 09FD  
                             u4267 036E                               u3715 0332  
                             _PEIE 005E                               u3820 0F46  
                             u3660 0728                               u3740 03FC  
                             u3580 061A                               u3900 0D91  
                             u4437 08D7                               u3821 0F45  
                             u3661 0727                               u3741 03FB  
                             u4357 03BB                               u4277 06C5  
                             u3581 0619                               u3485 0A17  
                             u3901 0D90                               u3830 0F4C  
                             u3750 0EB1                               u3670 0733  
                             u3590 062F                               u3910 0D9E  
                             u2695 09B4                               u4447 08E1  
                             u4367 0FD2                               u3831 0F4A  
                             u3751 0EB0                               u3495 1790  
                             u3671 0732                               u4287 0B3E  
                             u3591 062E                               u3575 0604  
                             u3911 0D9D                               u3840 0F4D  
                             u3760 0ED1                               u3680 0770  
                             u3920 0DAD                               u4377 0FF0  
                             u3761 0ED0                               u3681 076F  
                             u3745 03F8                               u4297 0B4D  
                             u3921 0DAC                               u3850 0F71  
                             u3770 0EED                               u3930 0DB4  
                             u3690 0318                               u4387 1625  
                             u3851 0F70                               u3771 0EEC  
                             u3931 0DB3                               u3915 0D9A  
                             u3691 0317                               u3860 0F8D  
                             u3780 0EF3                               u3940 0DC3  
                             _RCEN 048B                               u4397 1631  
                             u3861 0F8C                               u3781 0EF2  
                             u3765 0ECD                               u3941 0DC2  
                             u3870 0FB4                               u3790 0F17  
                             u3950 0DE0                               u3871 0FB3  
                             u3791 0F16                               u3951 0DDF  
                             u3960 0E73                               u3880 0D5E  
                             u3961 0E72                               u3881 0D5D  
                             u3970 0E8C                               u3890 0D7B  
                             u3875 0FB0                               u3971 0E8A  
                             u3891 0D7A                               u3980 0E8D  
                             u3990 0E99                               u3991 0E98  
                             u3895 0D77                               _TMR2 0011  
                             _SPEN 00C7                               _TXIF 0064  
                             _R_nW 04A2                      login@attempts 006B  
                             _main 0040                               _init 08E7  
                      main@pre_key 004C                     log_event@event 0023  
                             _time 00BC                               btemp 007E  
                             _puts 16D0                     log_event@speed 0020  
                             start 000C                  ___bmul@multiplier 0074  
                   clcd_write@byte 0075                     clcd_write@mode 0072  
                    _i2c_rep_start 155E                              ??_isr 0070  
                     ?_init_ds1307 0070                     ??_display_menu 0020  
                            ?_main 0070                       ?_read_ds1307 0070  
                            _ACKEN 048C                              _ACKDT 048D  
                            ?_init 0070                    __end_of___awdiv 0C04  
                            STR_10 0433                              STR_11 0444  
                            STR_20 04D3                              STR_12 0422  
                            STR_13 0455                              STR_21 0543  
                            STR_30 0531                              STR_14 04B6  
                            STR_22 0527                              STR_31 0555  
                            STR_15 0411                              STR_23 04EE  
                            STR_32 0477                              STR_16 0400  
                            STR_24 04FB                              STR_17 04A7  
                            STR_33 0487                              STR_25 053A  
                            STR_26 0551                              STR_34 051D  
                            STR_18 0497                              STR_27 0551  
                            STR_19 0512                              STR_35 04C5  
                            STR_28 04E1                    __end_of___awmod 0800  
                            STR_29 0507                              ?_puts 0073  
                  __end_of___lldiv 0CD3                        i2c_read@ack 0072  
                  ___awdiv@divisor 0072                    __end_of___lwdiv 09DD  
                            i1l422 0868                              i1l424 0875  
                  __end_of___lwmod 095B                    ___awdiv@counter 0076  
                            _SPBRG 0099                              _PORTB 0006  
                            _PORTD 0008                              _SSPM3 00A3  
                            _TRISB 0086                              _TRISD 0088  
                            _SSPEN 00A5                              _TXREG 0019  
                     ?_init_timer2 0070                              _nDONE 00FA  
                            _event 007A                              _login 056D  
          ?_fetch_data_from_memory 0070                              main@i 0041  
                            pclath 000A                              puts@s 0073  
                  __end_of_putchar 1574                              status 0003  
                            wtemp0 007E                    __end_of_strncmp 0A7C  
                 init_ds1307@dummy 0076                    __initialization 000F  
                   ?_i2c_rep_start 0070                       __end_of_main 030A  
                     __end_of_init 0921                       __end_of_puts 16F6  
                 __end_of_i2c_read 16AD                   __end_of_i2c_stop 1553  
                    ?_download_log 0070                             ??_main 002F  
                           ??_init 007A                             ??_puts 0075  
                   login@spassword 00CD     __end_of_fetch_data_from_memory 0D52  
                   login@upassword 0067                             _ADRESH 001E  
                           ?_login 0022                             _ADRESL 009E  
                 ___awdiv@dividend 0074                       i2c_read@data 0073  
                           i1l3551 0866                             i1l3543 0847  
                           i1l3553 086D                             i1l3545 084D  
                           i1l3555 0872                             i1l3547 085F  
                           i1l3549 0861                             i1l3557 0874  
                           u300_20 0866                             u300_21 0865  
                           u301_20 086D                             u301_21 086C  
                           u302_20 0872                             u302_21 0871  
                     _write_ds1307 166E                             u298_20 084D  
                           u298_21 084C                             u299_20 085F  
                           u299_21 085E                             _TMR2IE 0461  
                           _TMR2IF 0061                             _TMR2ON 0092  
                           _SSPADD 0093                             _TRISE1 0449  
                           _TRISE2 044A                             _SSPBUF 0013  
            __end_of_clear_display 15B7        __end_of_init_digital_keypad 1532  
            change_pass@clear_flag 0058                   __end_of_get_time 0C6B  
                           ___bmul 0800            _init_display_controller 0B3A  
                        ??___awdiv 0076                          ??___awmod 0076  
                        ??___lldiv 0020        ??_eeprom_at24C04_byte_write 0074  
                        ??___lwdiv 007A                          ??___lwmod 0076  
                 __end_of_init_i2c 0847                   __end_of_init_adc 1539  
                 __end_of_read_adc 15C9                     ??_download_log 0020  
                 ___awdiv@quotient 0078                    ___awmod@divisor 0072  
                           _set_tm 005E                    ___awmod@counter 0076  
                    view_log@reset 0020                             main@gr 0049  
                           _strcpy 16AD                             login@i 005A  
                           login@j 0026                   __end_of_set_time 0EA3  
                           saved_w 007E                   __end_of_view_log 0392  
                        ??_putchar 0072                          ??_strncmp 0075  
          __end_of__initialization 003C        eeprom_at24C04_str_write@str 0075  
             __end_of_display_menu 07A7                    ??_i2c_rep_start 0072  
              ___bmul@multiplicand 0072                      ?_login_screen 0070  
                   __pcstackCOMMON 0070                 main@press_duration 0044  
                     __pidataBANK0 1527                       __pidataBANK1 1635  
                    __end_of_login 06D8                 change_pass@re_pass 00C5  
                __end_of_i2c_start 154A                  __end_of_i2c_write 155E  
                ??_log_event_write 0079                  _i2c_wait_for_idle 158C  
        _eeprom_at24C04_byte_write 1650                            ??_login 0023  
               ?_i2c_wait_for_idle 0070                         __pbssBANK0 004D  
                       __pbssBANK1 00A0                          ?_i2c_read 0070  
                        ?_i2c_stop 0070                     ??_login_screen 0079  
        ??_init_display_controller 0076                         _clcd_print 17A2  
              ??_i2c_wait_for_idle 0072                         _clcd_putch 15EF  
                       _clcd_write 08B1                         __pmaintext 0040  
                  read_ds1307@addr 0074                    read_ds1307@data 0075  
                          ?___bmul 0072                         __pintentry 0004  
                          _ACKSTAT 048E                            ?_strcpy 0072  
                          _T2CKPS0 0090                            _T2CKPS1 0091  
                       _fetch_data 00A0        __end_of_read_digital_keypad 1720  
        __end_of_i2c_wait_for_idle 1599                       init_i2c@baud 0026  
                          _SSPCON2 0091                          ?_get_time 0070  
                       __stringtab 1000                         ??_i2c_read 0072  
                       ??_i2c_stop 0072                          ?_init_i2c 0026  
             __end_of_download_log 03FD                          ?_init_adc 0070  
              _eeprom_at24C04_read 174B                          ?_read_adc 0072  
                __end_of_clear_log 17A2                log_event_write@addr 0079  
                        ?_set_time 0022                            ___awdiv 0B9D  
                          ___awmod 07A7                          ?_view_log 0020  
                          ___lldiv 0C6B                            ___lwdiv 0997  
                          ___lwmod 0921               ?_eeprom_at24C04_read 0070  
                          __ptext1 030A                            __ptext2 16AD  
                          __ptext3 0D52                            __ptext4 0921  
                          __ptext5 09DD                            __ptext6 16F6  
                          __ptext7 15B7                            __ptext8 056D  
                          __ptext9 1604           _eeprom_at24C04_str_write 17D1  
                       _cursor_off 157F    __end_of_init_display_controller 0B9D  
                __end_of_init_clcd 157F                  __end_of_init_uart 08B1  
                 ___awmod@dividend 0074                      ??_change_pass 0024  
                __end_of_cursor_on 1635                  __end_of_log_event 0AD8  
           display_dashboard@event 0025             display_dashboard@speed 0022  
                          _putchar 1569                            main@key 0048  
                          clrloop0 153A                         ??_get_time 0076  
                          _strncmp 0A2C               end_of_initialization 003C  
                       clear_log@i 0078                  __end_of_save_time 0A2C  
                      set_time@key 0025                         ??_init_i2c 002A  
                       ??_init_adc 0072                         ??_read_adc 0074  
                      ?_clcd_print 0076                        ?_clcd_putch 0020  
                  ___lldiv@divisor 0072                        ?_clcd_write 0072  
                  ___lldiv@counter 0025                         ??_set_time 0023  
                       ??_view_log 0022                       __pstringtext 0400  
                          strcpy@d 0076              ??_eeprom_at24C04_read 0074  
                     _display_menu 06D8                      i2c_write@data 0072  
             __end_of_login_screen 161B       eeprom_at24C04_str_write@addr 0077  
                    clcd_print@str 0076                __end_of_change_pass 1000  
        eeprom_at24C04_str_write@i 0078                    _log_event_write 095B  
                   __end_of___bmul 0815                        ?_cursor_off 0070  
                     _control_flag 006D                        view_log@key 0079  
                      view_log@pos 0050                     __end_of_strcpy 16D0  
              start_initialization 000F                   change_pass@i_470 002A  
                 change_pass@i_468 0028                          _i2c_start 1541  
                      __end_of_isr 087C                          _i2c_write 1553  
                 change_pass@reset 0022                      save_time@data 0077  
              change_pass@new_pass 00C9         fetch_data_from_memory@addr 0077  
                      putchar@data 0072              __end_of_i2c_rep_start 1569  
__end_of_eeprom_at24C04_byte_write 166E                           ??___bmul 0073  
                       init_fetch0 15DC                      ??_init_ds1307 0076  
                      __pdataBANK0 006B                        __pdataBANK1 00D1  
                    ??_read_ds1307 0074                       _download_log 0392  
         ??_fetch_data_from_memory 0076                           ??_strcpy 0074  
                    ??_init_timer2 0072                        __pbssCOMMON 007A  
                        ___latbits 0002                        _change_pass 0EA3  
                    __pcstackBANK0 0020                         login@reset 0028  
                       ?_i2c_start 0070                         ?_i2c_write 0070  
                   change_pass@key 0027            __end_of_log_event_write 0997  
                    _clear_display 15A6                       change_pass@i 0059  
                 ___lwdiv@dividend 0078         ??_eeprom_at24C04_str_write 0077  
                        _clear_log 1776                           ?___awdiv 0072  
                         ?___awmod 0072                  _display_dashboard 0AD8  
                         ?___lldiv 0072                           ?___lwdiv 0076  
                        _clock_reg 004D                           ?___lwmod 0072  
    eeprom_at24C04_byte_write@addr 0074      eeprom_at24C04_byte_write@data 0073  
               ?_display_dashboard 0022                          __pstrings 1000  
              __end_of_init_ds1307 15DC                read_adc@adc_reg_val 0074  
              ??_display_dashboard 0023                __end_of_read_ds1307 174B  
                 ___lwdiv@quotient 0020                           ?_putchar 0070  
                        _init_clcd 1574                          _init_uart 087C  
                         ?_strncmp 0072                          _cursor_on 161B  
                        _log_event 0A7C                      ?_write_ds1307 0073  
              __end_of_init_timer2 15A6           ?_init_display_controller 0070  
                interrupt_function 0004                     ?_clear_display 0070  
                        clear_ram0 1539                  display_menu@F1279 00DF  
                     ??_clcd_print 0079                       ??_clcd_putch 007A  
                     ??_clcd_write 0073                          _save_time 09DD  
                     _login_screen 1604                         ?_clear_log 0070  
        __end_of_display_dashboard 0B3A                          main@F1253 00E9  
                        main@F1262 00D1                      download_log@i 0023  
                display_menu@reset 0079                        __stringbase 1012  
                        main@event 0045                          main@reset 004B  
                        main@speed 004A                          main@store 0043  
                      ??_i2c_start 0072                 __end_of_clcd_print 17D1  
                      ??_i2c_write 0072                 __end_of_clcd_putch 1604  
               __end_of_clcd_write 08E7                         ?_init_clcd 0070  
                       ?_init_uart 0026                         ?_cursor_on 0070  
                   ??_write_ds1307 0074                         ?_log_event 0020  
              _init_digital_keypad 152C                           _i2c_read 168C  
                         _i2c_stop 154A                   ?_log_event_write 0070  
                    set_time@i_415 0026                         ?_save_time 0070  
      __end_of_eeprom_at24C04_read 1776                      set_time@reset 0022  
             ?_init_digital_keypad 0070                        _init_ds1307 15C9  
                 cursor_on@address 0077                       ??_cursor_off 0076  
               __end_of__stringtab 1012                  set_time@curs_flag 0052  
                      _read_ds1307 1720                        _init_timer2 1599  
                  ___lwdiv@divisor 0076                    ___lwdiv@counter 0022  
                         __ptext10 0A7C                           __ptext11 095B  
                         __ptext20 152C                           __ptext12 17D1  
                         __ptext21 1574                           __ptext13 08E7  
                         __ptext30 06D8                           __ptext22 0B3A  
                         __ptext14 087C                           __ptext31 0AD8  
                         __ptext23 1532                           __ptext15 1599  
                         __ptext40 0A2C                           __ptext32 0C04  
                         __ptext24 0392                           __ptext16 0815  
                         __ptext41 1650                           __ptext33 1720  
                         __ptext25 16D0                           __ptext17 0C6B  
                         __ptext50 17A2                           __ptext42 1553  
                         __ptext34 155E                           __ptext26 1569  
                         __ptext18 15C9                           __ptext51 08B1  
                         __ptext43 154A                           __ptext35 168C  
                         __ptext27 0CD3                           __ptext19 166E  
                         __ptext52 0997                           __ptext44 1541  
                         __ptext36 07A7                           __ptext28 174B  
                         __ptext53 0847                           __ptext45 158C  
                         __ptext37 0B9D                           __ptext29 0800  
                         __ptext46 161B                           __ptext38 1776  
                         __ptext47 157F                           __ptext39 0EA3  
                         __ptext48 15A6                           __ptext49 15EF  
                         _get_time 0C04                         strcpy@dest 0077  
                  ??_clear_display 0076                           _init_i2c 0815  
                         _init_adc 1532                           _read_adc 15B7  
           _fetch_data_from_memory 0CD3            read_digital_keypad@mode 0073  
          read_digital_keypad@once 006C                           _menu_pos 005D  
               __end_of_cursor_off 158C   __end_of_eeprom_at24C04_str_write 1800  
                        set_time@i 0054                        ??_clear_log 0078  
                         _set_time 0D52                           _view_log 030A  
                 display_menu@menu 0024              ??_init_digital_keypad 0072  
                         main@gear 0033                       ?_change_pass 0022  
                         isr@count 0056                           init_ram0 15E0  
                      ??_init_clcd 0078                        ??_init_uart 002A  
                         login@key 0022                        ??_cursor_on 0076  
                      ??_log_event 0021                           intlevel1 0000  
          eeprom_at24C04_read@addr 0074            eeprom_at24C04_read@data 0075  
                    init_uart@baud 0026                   ___lwmod@dividend 0074  
                 ___lldiv@dividend 0076                          strcpy@src 0072  
                      ??_save_time 0075                          stringcode 100A  
                  display_menu@key 002E         ?_eeprom_at24C04_byte_write 0073  
             __end_of_write_ds1307 168C                _read_digital_keypad 16F6  
                 ___lldiv@quotient 0021                    ___lwmod@divisor 0072  
                  ___lwmod@counter 0076                           strncmp@l 0077  
                         strncmp@n 0073                           strncmp@r 0072  
                         stringtab 1000                        _return_time 005B  
          fetch_data_from_memory@i 0076               ?_read_digital_keypad 0070  
                 write_ds1307@addr 0074                   write_ds1307@data 0073  
